   1              		.cpu cortex-m4
   2              		.eabi_attribute 27, 1
   3              		.eabi_attribute 28, 1
   4              		.eabi_attribute 20, 1
   5              		.eabi_attribute 21, 1
   6              		.eabi_attribute 23, 3
   7              		.eabi_attribute 24, 1
   8              		.eabi_attribute 25, 1
   9              		.eabi_attribute 26, 1
  10              		.eabi_attribute 30, 4
  11              		.eabi_attribute 34, 1
  12              		.eabi_attribute 18, 2
  13              		.file	"rgb_matrix.c"
  14              		.text
  15              	.Ltext0:
  16              		.cfi_sections	.debug_frame
  17              		.section	.text.sqrt16,"ax",%progbits
  18              		.align	1
  19              		.arch armv7e-m
  20              		.syntax unified
  21              		.thumb
  22              		.thumb_func
  23              		.fpu fpv4-sp-d16
  25              	sqrt16:
  26              	.LVL0:
  27              	.LFB320:
  28              		.file 1 "./lib/lib8tion/math8.h"
   1:./lib/lib8tion/math8.h **** #ifndef __INC_LIB8TION_MATH_H
   2:./lib/lib8tion/math8.h **** #define __INC_LIB8TION_MATH_H
   3:./lib/lib8tion/math8.h **** 
   4:./lib/lib8tion/math8.h **** #include "scale8.h"
   5:./lib/lib8tion/math8.h **** 
   6:./lib/lib8tion/math8.h **** ///@ingroup lib8tion
   7:./lib/lib8tion/math8.h **** 
   8:./lib/lib8tion/math8.h **** ///@defgroup Math Basic math operations
   9:./lib/lib8tion/math8.h **** /// Fast, efficient 8-bit math functions specifically
  10:./lib/lib8tion/math8.h **** /// designed for high-performance LED programming.
  11:./lib/lib8tion/math8.h **** ///
  12:./lib/lib8tion/math8.h **** /// Because of the AVR(Arduino) and ARM assembly language
  13:./lib/lib8tion/math8.h **** /// implementations provided, using these functions often
  14:./lib/lib8tion/math8.h **** /// results in smaller and faster code than the equivalent
  15:./lib/lib8tion/math8.h **** /// program using plain "C" arithmetic and logic.
  16:./lib/lib8tion/math8.h **** ///@{
  17:./lib/lib8tion/math8.h **** 
  18:./lib/lib8tion/math8.h **** 
  19:./lib/lib8tion/math8.h **** /// add one byte to another, saturating at 0xFF
  20:./lib/lib8tion/math8.h **** /// @param i - first byte to add
  21:./lib/lib8tion/math8.h **** /// @param j - second byte to add
  22:./lib/lib8tion/math8.h **** /// @returns the sum of i & j, capped at 0xFF
  23:./lib/lib8tion/math8.h **** LIB8STATIC_ALWAYS_INLINE uint8_t qadd8( uint8_t i, uint8_t j)
  24:./lib/lib8tion/math8.h **** {
  25:./lib/lib8tion/math8.h **** #if QADD8_C == 1
  26:./lib/lib8tion/math8.h ****     uint16_t t = i + j;
  27:./lib/lib8tion/math8.h ****     if (t > 255) t = 255;
  28:./lib/lib8tion/math8.h ****     return t;
  29:./lib/lib8tion/math8.h **** #elif QADD8_AVRASM == 1
  30:./lib/lib8tion/math8.h ****     asm volatile(
  31:./lib/lib8tion/math8.h ****          /* First, add j to i, conditioning the C flag */
  32:./lib/lib8tion/math8.h ****          "add %0, %1    \n\t"
  33:./lib/lib8tion/math8.h **** 
  34:./lib/lib8tion/math8.h ****          /* Now test the C flag.
  35:./lib/lib8tion/math8.h ****            If C is clear, we branch around a load of 0xFF into i.
  36:./lib/lib8tion/math8.h ****            If C is set, we go ahead and load 0xFF into i.
  37:./lib/lib8tion/math8.h ****          */
  38:./lib/lib8tion/math8.h ****          "brcc L_%=     \n\t"
  39:./lib/lib8tion/math8.h ****          "ldi %0, 0xFF  \n\t"
  40:./lib/lib8tion/math8.h ****          "L_%=: "
  41:./lib/lib8tion/math8.h ****          : "+a" (i)
  42:./lib/lib8tion/math8.h ****          : "a"  (j) );
  43:./lib/lib8tion/math8.h ****     return i;
  44:./lib/lib8tion/math8.h **** #elif QADD8_ARM_DSP_ASM == 1
  45:./lib/lib8tion/math8.h ****     asm volatile( "uqadd8 %0, %0, %1" : "+r" (i) : "r" (j));
  46:./lib/lib8tion/math8.h ****     return i;
  47:./lib/lib8tion/math8.h **** #else
  48:./lib/lib8tion/math8.h **** #error "No implementation for qadd8 available."
  49:./lib/lib8tion/math8.h **** #endif
  50:./lib/lib8tion/math8.h **** }
  51:./lib/lib8tion/math8.h **** 
  52:./lib/lib8tion/math8.h **** /// Add one byte to another, saturating at 0x7F
  53:./lib/lib8tion/math8.h **** /// @param i - first byte to add
  54:./lib/lib8tion/math8.h **** /// @param j - second byte to add
  55:./lib/lib8tion/math8.h **** /// @returns the sum of i & j, capped at 0xFF
  56:./lib/lib8tion/math8.h **** LIB8STATIC_ALWAYS_INLINE int8_t qadd7( int8_t i, int8_t j)
  57:./lib/lib8tion/math8.h **** {
  58:./lib/lib8tion/math8.h **** #if QADD7_C == 1
  59:./lib/lib8tion/math8.h ****     int16_t t = i + j;
  60:./lib/lib8tion/math8.h ****     if (t > 127) t = 127;
  61:./lib/lib8tion/math8.h ****     return t;
  62:./lib/lib8tion/math8.h **** #elif QADD7_AVRASM == 1
  63:./lib/lib8tion/math8.h ****     asm volatile(
  64:./lib/lib8tion/math8.h ****          /* First, add j to i, conditioning the V flag */
  65:./lib/lib8tion/math8.h ****          "add %0, %1    \n\t"
  66:./lib/lib8tion/math8.h **** 
  67:./lib/lib8tion/math8.h ****          /* Now test the V flag.
  68:./lib/lib8tion/math8.h ****           If V is clear, we branch around a load of 0x7F into i.
  69:./lib/lib8tion/math8.h ****           If V is set, we go ahead and load 0x7F into i.
  70:./lib/lib8tion/math8.h ****           */
  71:./lib/lib8tion/math8.h ****          "brvc L_%=     \n\t"
  72:./lib/lib8tion/math8.h ****          "ldi %0, 0x7F  \n\t"
  73:./lib/lib8tion/math8.h ****          "L_%=: "
  74:./lib/lib8tion/math8.h ****          : "+a" (i)
  75:./lib/lib8tion/math8.h ****          : "a"  (j) );
  76:./lib/lib8tion/math8.h **** 
  77:./lib/lib8tion/math8.h ****     return i;
  78:./lib/lib8tion/math8.h **** #elif QADD7_ARM_DSP_ASM == 1
  79:./lib/lib8tion/math8.h ****     asm volatile( "qadd8 %0, %0, %1" : "+r" (i) : "r" (j));
  80:./lib/lib8tion/math8.h ****     return i;
  81:./lib/lib8tion/math8.h **** #else
  82:./lib/lib8tion/math8.h **** #error "No implementation for qadd7 available."
  83:./lib/lib8tion/math8.h **** #endif
  84:./lib/lib8tion/math8.h **** }
  85:./lib/lib8tion/math8.h **** 
  86:./lib/lib8tion/math8.h **** /// subtract one byte from another, saturating at 0x00
  87:./lib/lib8tion/math8.h **** /// @returns i - j with a floor of 0
  88:./lib/lib8tion/math8.h **** LIB8STATIC_ALWAYS_INLINE uint8_t qsub8( uint8_t i, uint8_t j)
  89:./lib/lib8tion/math8.h **** {
  90:./lib/lib8tion/math8.h **** #if QSUB8_C == 1
  91:./lib/lib8tion/math8.h ****     int16_t t = i - j;
  92:./lib/lib8tion/math8.h ****     if (t < 0) t = 0;
  93:./lib/lib8tion/math8.h ****     return t;
  94:./lib/lib8tion/math8.h **** #elif QSUB8_AVRASM == 1
  95:./lib/lib8tion/math8.h **** 
  96:./lib/lib8tion/math8.h ****     asm volatile(
  97:./lib/lib8tion/math8.h ****          /* First, subtract j from i, conditioning the C flag */
  98:./lib/lib8tion/math8.h ****          "sub %0, %1    \n\t"
  99:./lib/lib8tion/math8.h **** 
 100:./lib/lib8tion/math8.h ****          /* Now test the C flag.
 101:./lib/lib8tion/math8.h ****           If C is clear, we branch around a load of 0x00 into i.
 102:./lib/lib8tion/math8.h ****           If C is set, we go ahead and load 0x00 into i.
 103:./lib/lib8tion/math8.h ****           */
 104:./lib/lib8tion/math8.h ****          "brcc L_%=     \n\t"
 105:./lib/lib8tion/math8.h ****          "ldi %0, 0x00  \n\t"
 106:./lib/lib8tion/math8.h ****          "L_%=: "
 107:./lib/lib8tion/math8.h ****          : "+a" (i)
 108:./lib/lib8tion/math8.h ****          : "a"  (j) );
 109:./lib/lib8tion/math8.h **** 
 110:./lib/lib8tion/math8.h ****     return i;
 111:./lib/lib8tion/math8.h **** #else
 112:./lib/lib8tion/math8.h **** #error "No implementation for qsub8 available."
 113:./lib/lib8tion/math8.h **** #endif
 114:./lib/lib8tion/math8.h **** }
 115:./lib/lib8tion/math8.h **** 
 116:./lib/lib8tion/math8.h **** /// add one byte to another, with one byte result
 117:./lib/lib8tion/math8.h **** LIB8STATIC_ALWAYS_INLINE uint8_t add8( uint8_t i, uint8_t j)
 118:./lib/lib8tion/math8.h **** {
 119:./lib/lib8tion/math8.h **** #if ADD8_C == 1
 120:./lib/lib8tion/math8.h ****     uint16_t t = i + j;
 121:./lib/lib8tion/math8.h ****     return t;
 122:./lib/lib8tion/math8.h **** #elif ADD8_AVRASM == 1
 123:./lib/lib8tion/math8.h ****     // Add j to i, period.
 124:./lib/lib8tion/math8.h ****     asm volatile( "add %0, %1" : "+a" (i) : "a" (j));
 125:./lib/lib8tion/math8.h ****     return i;
 126:./lib/lib8tion/math8.h **** #else
 127:./lib/lib8tion/math8.h **** #error "No implementation for add8 available."
 128:./lib/lib8tion/math8.h **** #endif
 129:./lib/lib8tion/math8.h **** }
 130:./lib/lib8tion/math8.h **** 
 131:./lib/lib8tion/math8.h **** /// add one byte to another, with one byte result
 132:./lib/lib8tion/math8.h **** LIB8STATIC_ALWAYS_INLINE uint16_t add8to16( uint8_t i, uint16_t j)
 133:./lib/lib8tion/math8.h **** {
 134:./lib/lib8tion/math8.h **** #if ADD8_C == 1
 135:./lib/lib8tion/math8.h ****     uint16_t t = i + j;
 136:./lib/lib8tion/math8.h ****     return t;
 137:./lib/lib8tion/math8.h **** #elif ADD8_AVRASM == 1
 138:./lib/lib8tion/math8.h ****     // Add i(one byte) to j(two bytes)
 139:./lib/lib8tion/math8.h ****     asm volatile( "add %A[j], %[i]              \n\t"
 140:./lib/lib8tion/math8.h ****                   "adc %B[j], __zero_reg__      \n\t"
 141:./lib/lib8tion/math8.h ****                  : [j] "+a" (j)
 142:./lib/lib8tion/math8.h ****                  : [i] "a"  (i)
 143:./lib/lib8tion/math8.h ****                  );
 144:./lib/lib8tion/math8.h ****     return i;
 145:./lib/lib8tion/math8.h **** #else
 146:./lib/lib8tion/math8.h **** #error "No implementation for add8to16 available."
 147:./lib/lib8tion/math8.h **** #endif
 148:./lib/lib8tion/math8.h **** }
 149:./lib/lib8tion/math8.h **** 
 150:./lib/lib8tion/math8.h **** 
 151:./lib/lib8tion/math8.h **** /// subtract one byte from another, 8-bit result
 152:./lib/lib8tion/math8.h **** LIB8STATIC_ALWAYS_INLINE uint8_t sub8( uint8_t i, uint8_t j)
 153:./lib/lib8tion/math8.h **** {
 154:./lib/lib8tion/math8.h **** #if SUB8_C == 1
 155:./lib/lib8tion/math8.h ****     int16_t t = i - j;
 156:./lib/lib8tion/math8.h ****     return t;
 157:./lib/lib8tion/math8.h **** #elif SUB8_AVRASM == 1
 158:./lib/lib8tion/math8.h ****     // Subtract j from i, period.
 159:./lib/lib8tion/math8.h ****     asm volatile( "sub %0, %1" : "+a" (i) : "a" (j));
 160:./lib/lib8tion/math8.h ****     return i;
 161:./lib/lib8tion/math8.h **** #else
 162:./lib/lib8tion/math8.h **** #error "No implementation for sub8 available."
 163:./lib/lib8tion/math8.h **** #endif
 164:./lib/lib8tion/math8.h **** }
 165:./lib/lib8tion/math8.h **** 
 166:./lib/lib8tion/math8.h **** /// Calculate an integer average of two unsigned
 167:./lib/lib8tion/math8.h **** ///       8-bit integer values (uint8_t).
 168:./lib/lib8tion/math8.h **** ///       Fractional results are rounded down, e.g. avg8(20,41) = 30
 169:./lib/lib8tion/math8.h **** LIB8STATIC_ALWAYS_INLINE uint8_t avg8( uint8_t i, uint8_t j)
 170:./lib/lib8tion/math8.h **** {
 171:./lib/lib8tion/math8.h **** #if AVG8_C == 1
 172:./lib/lib8tion/math8.h ****     return (i + j) >> 1;
 173:./lib/lib8tion/math8.h **** #elif AVG8_AVRASM == 1
 174:./lib/lib8tion/math8.h ****     asm volatile(
 175:./lib/lib8tion/math8.h ****          /* First, add j to i, 9th bit overflows into C flag */
 176:./lib/lib8tion/math8.h ****          "add %0, %1    \n\t"
 177:./lib/lib8tion/math8.h ****          /* Divide by two, moving C flag into high 8th bit */
 178:./lib/lib8tion/math8.h ****          "ror %0        \n\t"
 179:./lib/lib8tion/math8.h ****          : "+a" (i)
 180:./lib/lib8tion/math8.h ****          : "a"  (j) );
 181:./lib/lib8tion/math8.h ****     return i;
 182:./lib/lib8tion/math8.h **** #else
 183:./lib/lib8tion/math8.h **** #error "No implementation for avg8 available."
 184:./lib/lib8tion/math8.h **** #endif
 185:./lib/lib8tion/math8.h **** }
 186:./lib/lib8tion/math8.h **** 
 187:./lib/lib8tion/math8.h **** /// Calculate an integer average of two unsigned
 188:./lib/lib8tion/math8.h **** ///       16-bit integer values (uint16_t).
 189:./lib/lib8tion/math8.h **** ///       Fractional results are rounded down, e.g. avg16(20,41) = 30
 190:./lib/lib8tion/math8.h **** LIB8STATIC_ALWAYS_INLINE uint16_t avg16( uint16_t i, uint16_t j)
 191:./lib/lib8tion/math8.h **** {
 192:./lib/lib8tion/math8.h **** #if AVG16_C == 1
 193:./lib/lib8tion/math8.h ****     return (uint32_t)((uint32_t)(i) + (uint32_t)(j)) >> 1;
 194:./lib/lib8tion/math8.h **** #elif AVG16_AVRASM == 1
 195:./lib/lib8tion/math8.h ****     asm volatile(
 196:./lib/lib8tion/math8.h ****                  /* First, add jLo (heh) to iLo, 9th bit overflows into C flag */
 197:./lib/lib8tion/math8.h ****                  "add %A[i], %A[j]    \n\t"
 198:./lib/lib8tion/math8.h ****                  /* Now, add C + jHi to iHi, 17th bit overflows into C flag */
 199:./lib/lib8tion/math8.h ****                  "adc %B[i], %B[j]    \n\t"
 200:./lib/lib8tion/math8.h ****                  /* Divide iHi by two, moving C flag into high 16th bit, old 9th bit now in C */
 201:./lib/lib8tion/math8.h ****                  "ror %B[i]        \n\t"
 202:./lib/lib8tion/math8.h ****                  /* Divide iLo by two, moving C flag into high 8th bit */
 203:./lib/lib8tion/math8.h ****                  "ror %A[i]        \n\t"
 204:./lib/lib8tion/math8.h ****                  : [i] "+a" (i)
 205:./lib/lib8tion/math8.h ****                  : [j] "a"  (j) );
 206:./lib/lib8tion/math8.h ****     return i;
 207:./lib/lib8tion/math8.h **** #else
 208:./lib/lib8tion/math8.h **** #error "No implementation for avg16 available."
 209:./lib/lib8tion/math8.h **** #endif
 210:./lib/lib8tion/math8.h **** }
 211:./lib/lib8tion/math8.h **** 
 212:./lib/lib8tion/math8.h **** 
 213:./lib/lib8tion/math8.h **** /// Calculate an integer average of two signed 7-bit
 214:./lib/lib8tion/math8.h **** ///       integers (int8_t)
 215:./lib/lib8tion/math8.h **** ///       If the first argument is even, result is rounded down.
 216:./lib/lib8tion/math8.h **** ///       If the first argument is odd, result is result up.
 217:./lib/lib8tion/math8.h **** LIB8STATIC_ALWAYS_INLINE int8_t avg7( int8_t i, int8_t j)
 218:./lib/lib8tion/math8.h **** {
 219:./lib/lib8tion/math8.h **** #if AVG7_C == 1
 220:./lib/lib8tion/math8.h ****     return ((i + j) >> 1) + (i & 0x1);
 221:./lib/lib8tion/math8.h **** #elif AVG7_AVRASM == 1
 222:./lib/lib8tion/math8.h ****     asm volatile(
 223:./lib/lib8tion/math8.h ****                  "asr %1        \n\t"
 224:./lib/lib8tion/math8.h ****                  "asr %0        \n\t"
 225:./lib/lib8tion/math8.h ****                  "adc %0, %1    \n\t"
 226:./lib/lib8tion/math8.h ****                  : "+a" (i)
 227:./lib/lib8tion/math8.h ****                  : "a"  (j) );
 228:./lib/lib8tion/math8.h ****     return i;
 229:./lib/lib8tion/math8.h **** #else
 230:./lib/lib8tion/math8.h **** #error "No implementation for avg7 available."
 231:./lib/lib8tion/math8.h **** #endif
 232:./lib/lib8tion/math8.h **** }
 233:./lib/lib8tion/math8.h **** 
 234:./lib/lib8tion/math8.h **** /// Calculate an integer average of two signed 15-bit
 235:./lib/lib8tion/math8.h **** ///       integers (int16_t)
 236:./lib/lib8tion/math8.h **** ///       If the first argument is even, result is rounded down.
 237:./lib/lib8tion/math8.h **** ///       If the first argument is odd, result is result up.
 238:./lib/lib8tion/math8.h **** LIB8STATIC_ALWAYS_INLINE int16_t avg15( int16_t i, int16_t j)
 239:./lib/lib8tion/math8.h **** {
 240:./lib/lib8tion/math8.h **** #if AVG15_C == 1
 241:./lib/lib8tion/math8.h ****     return ((int32_t)((int32_t)(i) + (int32_t)(j)) >> 1) + (i & 0x1);
 242:./lib/lib8tion/math8.h **** #elif AVG15_AVRASM == 1
 243:./lib/lib8tion/math8.h ****     asm volatile(
 244:./lib/lib8tion/math8.h ****                  /* first divide j by 2, throwing away lowest bit */
 245:./lib/lib8tion/math8.h ****                  "asr %B[j]          \n\t"
 246:./lib/lib8tion/math8.h ****                  "ror %A[j]          \n\t"
 247:./lib/lib8tion/math8.h ****                  /* now divide i by 2, with lowest bit going into C */
 248:./lib/lib8tion/math8.h ****                  "asr %B[i]          \n\t"
 249:./lib/lib8tion/math8.h ****                  "ror %A[i]          \n\t"
 250:./lib/lib8tion/math8.h ****                  /* add j + C to i */
 251:./lib/lib8tion/math8.h ****                  "adc %A[i], %A[j]   \n\t"
 252:./lib/lib8tion/math8.h ****                  "adc %B[i], %B[j]   \n\t"
 253:./lib/lib8tion/math8.h ****                  : [i] "+a" (i)
 254:./lib/lib8tion/math8.h ****                  : [j] "a"  (j) );
 255:./lib/lib8tion/math8.h ****     return i;
 256:./lib/lib8tion/math8.h **** #else
 257:./lib/lib8tion/math8.h **** #error "No implementation for avg15 available."
 258:./lib/lib8tion/math8.h **** #endif
 259:./lib/lib8tion/math8.h **** }
 260:./lib/lib8tion/math8.h **** 
 261:./lib/lib8tion/math8.h **** 
 262:./lib/lib8tion/math8.h **** ///       Calculate the remainder of one unsigned 8-bit
 263:./lib/lib8tion/math8.h **** ///       value divided by anoter, aka A % M.
 264:./lib/lib8tion/math8.h **** ///       Implemented by repeated subtraction, which is
 265:./lib/lib8tion/math8.h **** ///       very compact, and very fast if A is 'probably'
 266:./lib/lib8tion/math8.h **** ///       less than M.  If A is a large multiple of M,
 267:./lib/lib8tion/math8.h **** ///       the loop has to execute multiple times.  However,
 268:./lib/lib8tion/math8.h **** ///       even in that case, the loop is only two
 269:./lib/lib8tion/math8.h **** ///       instructions long on AVR, i.e., quick.
 270:./lib/lib8tion/math8.h **** LIB8STATIC_ALWAYS_INLINE uint8_t mod8( uint8_t a, uint8_t m)
 271:./lib/lib8tion/math8.h **** {
 272:./lib/lib8tion/math8.h **** #if defined(__AVR__)
 273:./lib/lib8tion/math8.h ****     asm volatile (
 274:./lib/lib8tion/math8.h ****                   "L_%=:  sub %[a],%[m]    \n\t"
 275:./lib/lib8tion/math8.h ****                   "       brcc L_%=        \n\t"
 276:./lib/lib8tion/math8.h ****                   "       add %[a],%[m]    \n\t"
 277:./lib/lib8tion/math8.h ****                   : [a] "+r" (a)
 278:./lib/lib8tion/math8.h ****                   : [m] "r"  (m)
 279:./lib/lib8tion/math8.h ****                   );
 280:./lib/lib8tion/math8.h **** #else
 281:./lib/lib8tion/math8.h ****     while( a >= m) a -= m;
 282:./lib/lib8tion/math8.h **** #endif
 283:./lib/lib8tion/math8.h ****     return a;
 284:./lib/lib8tion/math8.h **** }
 285:./lib/lib8tion/math8.h **** 
 286:./lib/lib8tion/math8.h **** ///          Add two numbers, and calculate the modulo
 287:./lib/lib8tion/math8.h **** ///          of the sum and a third number, M.
 288:./lib/lib8tion/math8.h **** ///          In other words, it returns (A+B) % M.
 289:./lib/lib8tion/math8.h **** ///          It is designed as a compact mechanism for
 290:./lib/lib8tion/math8.h **** ///          incrementing a 'mode' switch and wrapping
 291:./lib/lib8tion/math8.h **** ///          around back to 'mode 0' when the switch
 292:./lib/lib8tion/math8.h **** ///          goes past the end of the available range.
 293:./lib/lib8tion/math8.h **** ///          e.g. if you have seven modes, this switches
 294:./lib/lib8tion/math8.h **** ///          to the next one and wraps around if needed:
 295:./lib/lib8tion/math8.h **** ///            mode = addmod8( mode, 1, 7);
 296:./lib/lib8tion/math8.h **** ///LIB8STATIC_ALWAYS_INLINESee 'mod8' for notes on performance.
 297:./lib/lib8tion/math8.h **** LIB8STATIC uint8_t addmod8( uint8_t a, uint8_t b, uint8_t m)
 298:./lib/lib8tion/math8.h **** {
 299:./lib/lib8tion/math8.h **** #if defined(__AVR__)
 300:./lib/lib8tion/math8.h ****     asm volatile (
 301:./lib/lib8tion/math8.h ****                   "       add %[a],%[b]    \n\t"
 302:./lib/lib8tion/math8.h ****                   "L_%=:  sub %[a],%[m]    \n\t"
 303:./lib/lib8tion/math8.h ****                   "       brcc L_%=        \n\t"
 304:./lib/lib8tion/math8.h ****                   "       add %[a],%[m]    \n\t"
 305:./lib/lib8tion/math8.h ****                   : [a] "+r" (a)
 306:./lib/lib8tion/math8.h ****                   : [b] "r"  (b), [m] "r" (m)
 307:./lib/lib8tion/math8.h ****                   );
 308:./lib/lib8tion/math8.h **** #else
 309:./lib/lib8tion/math8.h ****     a += b;
 310:./lib/lib8tion/math8.h ****     while( a >= m) a -= m;
 311:./lib/lib8tion/math8.h **** #endif
 312:./lib/lib8tion/math8.h ****     return a;
 313:./lib/lib8tion/math8.h **** }
 314:./lib/lib8tion/math8.h **** 
 315:./lib/lib8tion/math8.h **** ///          Subtract two numbers, and calculate the modulo
 316:./lib/lib8tion/math8.h **** ///          of the difference and a third number, M.
 317:./lib/lib8tion/math8.h **** ///          In other words, it returns (A-B) % M.
 318:./lib/lib8tion/math8.h **** ///          It is designed as a compact mechanism for
 319:./lib/lib8tion/math8.h **** ///          incrementing a 'mode' switch and wrapping
 320:./lib/lib8tion/math8.h **** ///          around back to 'mode 0' when the switch
 321:./lib/lib8tion/math8.h **** ///          goes past the end of the available range.
 322:./lib/lib8tion/math8.h **** ///          e.g. if you have seven modes, this switches
 323:./lib/lib8tion/math8.h **** ///          to the next one and wraps around if needed:
 324:./lib/lib8tion/math8.h **** ///            mode = addmod8( mode, 1, 7);
 325:./lib/lib8tion/math8.h **** ///LIB8STATIC_ALWAYS_INLINESee 'mod8' for notes on performance.
 326:./lib/lib8tion/math8.h **** LIB8STATIC uint8_t submod8( uint8_t a, uint8_t b, uint8_t m)
 327:./lib/lib8tion/math8.h **** {
 328:./lib/lib8tion/math8.h **** #if defined(__AVR__)
 329:./lib/lib8tion/math8.h ****     asm volatile (
 330:./lib/lib8tion/math8.h ****                   "       sub %[a],%[b]    \n\t"
 331:./lib/lib8tion/math8.h ****                   "L_%=:  sub %[a],%[m]    \n\t"
 332:./lib/lib8tion/math8.h ****                   "       brcc L_%=        \n\t"
 333:./lib/lib8tion/math8.h ****                   "       add %[a],%[m]    \n\t"
 334:./lib/lib8tion/math8.h ****                   : [a] "+r" (a)
 335:./lib/lib8tion/math8.h ****                   : [b] "r"  (b), [m] "r" (m)
 336:./lib/lib8tion/math8.h ****                   );
 337:./lib/lib8tion/math8.h **** #else
 338:./lib/lib8tion/math8.h ****     a -= b;
 339:./lib/lib8tion/math8.h ****     while( a >= m) a -= m;
 340:./lib/lib8tion/math8.h **** #endif
 341:./lib/lib8tion/math8.h ****     return a;
 342:./lib/lib8tion/math8.h **** }
 343:./lib/lib8tion/math8.h **** 
 344:./lib/lib8tion/math8.h **** /// 8x8 bit multiplication, with 8 bit result
 345:./lib/lib8tion/math8.h **** LIB8STATIC_ALWAYS_INLINE uint8_t mul8( uint8_t i, uint8_t j)
 346:./lib/lib8tion/math8.h **** {
 347:./lib/lib8tion/math8.h **** #if MUL8_C == 1
 348:./lib/lib8tion/math8.h ****     return ((uint16_t)i * (uint16_t)(j) ) & 0xFF;
 349:./lib/lib8tion/math8.h **** #elif MUL8_AVRASM == 1
 350:./lib/lib8tion/math8.h ****     asm volatile(
 351:./lib/lib8tion/math8.h ****          /* Multiply 8-bit i * 8-bit j, giving 16-bit r1,r0 */
 352:./lib/lib8tion/math8.h ****          "mul %0, %1          \n\t"
 353:./lib/lib8tion/math8.h ****          /* Extract the LOW 8-bits (r0) */
 354:./lib/lib8tion/math8.h ****          "mov %0, r0          \n\t"
 355:./lib/lib8tion/math8.h ****          /* Restore r1 to "0"; it's expected to always be that */
 356:./lib/lib8tion/math8.h ****          "clr __zero_reg__    \n\t"
 357:./lib/lib8tion/math8.h ****          : "+a" (i)
 358:./lib/lib8tion/math8.h ****          : "a"  (j)
 359:./lib/lib8tion/math8.h ****          : "r0", "r1");
 360:./lib/lib8tion/math8.h **** 
 361:./lib/lib8tion/math8.h ****     return i;
 362:./lib/lib8tion/math8.h **** #else
 363:./lib/lib8tion/math8.h **** #error "No implementation for mul8 available."
 364:./lib/lib8tion/math8.h **** #endif
 365:./lib/lib8tion/math8.h **** }
 366:./lib/lib8tion/math8.h **** 
 367:./lib/lib8tion/math8.h **** 
 368:./lib/lib8tion/math8.h **** /// saturating 8x8 bit multiplication, with 8 bit result
 369:./lib/lib8tion/math8.h **** /// @returns the product of i * j, capping at 0xFF
 370:./lib/lib8tion/math8.h **** LIB8STATIC_ALWAYS_INLINE uint8_t qmul8( uint8_t i, uint8_t j)
 371:./lib/lib8tion/math8.h **** {
 372:./lib/lib8tion/math8.h **** #if QMUL8_C == 1
 373:./lib/lib8tion/math8.h ****     int p = ((uint16_t)i * (uint16_t)(j) );
 374:./lib/lib8tion/math8.h ****     if( p > 255) p = 255;
 375:./lib/lib8tion/math8.h ****     return p;
 376:./lib/lib8tion/math8.h **** #elif QMUL8_AVRASM == 1
 377:./lib/lib8tion/math8.h ****     asm volatile(
 378:./lib/lib8tion/math8.h ****                  /* Multiply 8-bit i * 8-bit j, giving 16-bit r1,r0 */
 379:./lib/lib8tion/math8.h ****                  "  mul %0, %1          \n\t"
 380:./lib/lib8tion/math8.h ****                  /* If high byte of result is zero, all is well. */
 381:./lib/lib8tion/math8.h ****                  "  tst r1              \n\t"
 382:./lib/lib8tion/math8.h ****                  "  breq Lnospill_%=    \n\t"
 383:./lib/lib8tion/math8.h ****                  /* If high byte of result > 0, saturate low byte to 0xFF */
 384:./lib/lib8tion/math8.h ****                  "  ldi %0,0xFF         \n\t"
 385:./lib/lib8tion/math8.h ****                  "  rjmp Ldone_%=       \n\t"
 386:./lib/lib8tion/math8.h ****                  "Lnospill_%=:          \n\t"
 387:./lib/lib8tion/math8.h ****                  /* Extract the LOW 8-bits (r0) */
 388:./lib/lib8tion/math8.h ****                  "  mov %0, r0          \n\t"
 389:./lib/lib8tion/math8.h ****                  "Ldone_%=:             \n\t"
 390:./lib/lib8tion/math8.h ****                  /* Restore r1 to "0"; it's expected to always be that */
 391:./lib/lib8tion/math8.h ****                  "  clr __zero_reg__    \n\t"
 392:./lib/lib8tion/math8.h ****                  : "+a" (i)
 393:./lib/lib8tion/math8.h ****                  : "a"  (j)
 394:./lib/lib8tion/math8.h ****                  : "r0", "r1");
 395:./lib/lib8tion/math8.h **** 
 396:./lib/lib8tion/math8.h ****     return i;
 397:./lib/lib8tion/math8.h **** #else
 398:./lib/lib8tion/math8.h **** #error "No implementation for qmul8 available."
 399:./lib/lib8tion/math8.h **** #endif
 400:./lib/lib8tion/math8.h **** }
 401:./lib/lib8tion/math8.h **** 
 402:./lib/lib8tion/math8.h **** 
 403:./lib/lib8tion/math8.h **** /// take abs() of a signed 8-bit uint8_t
 404:./lib/lib8tion/math8.h **** LIB8STATIC_ALWAYS_INLINE int8_t abs8( int8_t i)
 405:./lib/lib8tion/math8.h **** {
 406:./lib/lib8tion/math8.h **** #if ABS8_C == 1
 407:./lib/lib8tion/math8.h ****     if( i < 0) i = -i;
 408:./lib/lib8tion/math8.h ****     return i;
 409:./lib/lib8tion/math8.h **** #elif ABS8_AVRASM == 1
 410:./lib/lib8tion/math8.h **** 
 411:./lib/lib8tion/math8.h **** 
 412:./lib/lib8tion/math8.h ****     asm volatile(
 413:./lib/lib8tion/math8.h ****          /* First, check the high bit, and prepare to skip if it's clear */
 414:./lib/lib8tion/math8.h ****          "sbrc %0, 7 \n"
 415:./lib/lib8tion/math8.h **** 
 416:./lib/lib8tion/math8.h ****          /* Negate the value */
 417:./lib/lib8tion/math8.h ****          "neg %0     \n"
 418:./lib/lib8tion/math8.h **** 
 419:./lib/lib8tion/math8.h ****          : "+r" (i) : "r" (i) );
 420:./lib/lib8tion/math8.h ****     return i;
 421:./lib/lib8tion/math8.h **** #else
 422:./lib/lib8tion/math8.h **** #error "No implementation for abs8 available."
 423:./lib/lib8tion/math8.h **** #endif
 424:./lib/lib8tion/math8.h **** }
 425:./lib/lib8tion/math8.h **** 
 426:./lib/lib8tion/math8.h **** ///         square root for 16-bit integers
 427:./lib/lib8tion/math8.h **** ///         About three times faster and five times smaller
 428:./lib/lib8tion/math8.h **** ///         than Arduino's general sqrt on AVR.
 429:./lib/lib8tion/math8.h **** LIB8STATIC uint8_t sqrt16(uint16_t x)
 430:./lib/lib8tion/math8.h **** {
  29              		.loc 1 430 1 view -0
  30              		.cfi_startproc
  31              		@ args = 0, pretend = 0, frame = 0
  32              		@ frame_needed = 0, uses_anonymous_args = 0
 431:./lib/lib8tion/math8.h ****     if( x <= 1) {
  33              		.loc 1 431 5 view .LVU1
  34              		.loc 1 431 7 is_stmt 0 view .LVU2
  35 0000 0128     		cmp	r0, #1
 430:./lib/lib8tion/math8.h ****     if( x <= 1) {
  36              		.loc 1 430 1 view .LVU3
  37 0002 30B5     		push	{r4, r5, lr}
  38              		.cfi_def_cfa_offset 12
  39              		.cfi_offset 4, -12
  40              		.cfi_offset 5, -8
  41              		.cfi_offset 14, -4
  42              		.loc 1 431 7 view .LVU4
  43 0004 01D8     		bhi	.L2
  44              	.LVL1:
  45              	.L11:
 432:./lib/lib8tion/math8.h ****         return x;
 433:./lib/lib8tion/math8.h ****     }
 434:./lib/lib8tion/math8.h **** 
 435:./lib/lib8tion/math8.h ****     uint8_t low = 1; // lower bound
 436:./lib/lib8tion/math8.h ****     uint8_t hi, mid;
 437:./lib/lib8tion/math8.h **** 
 438:./lib/lib8tion/math8.h ****     if( x > 7904) {
 439:./lib/lib8tion/math8.h ****         hi = 255;
 440:./lib/lib8tion/math8.h ****     } else {
 441:./lib/lib8tion/math8.h ****         hi = (x >> 5) + 8; // initial estimate for upper bound
 442:./lib/lib8tion/math8.h ****     }
 443:./lib/lib8tion/math8.h **** 
 444:./lib/lib8tion/math8.h ****     do {
 445:./lib/lib8tion/math8.h ****         mid = (low + hi) >> 1;
 446:./lib/lib8tion/math8.h ****         if ((uint16_t)(mid * mid) > x) {
 447:./lib/lib8tion/math8.h ****             hi = mid - 1;
 448:./lib/lib8tion/math8.h ****         } else {
 449:./lib/lib8tion/math8.h ****             if( mid == 255) {
 450:./lib/lib8tion/math8.h ****                 return 255;
 451:./lib/lib8tion/math8.h ****             }
 452:./lib/lib8tion/math8.h ****             low = mid + 1;
 453:./lib/lib8tion/math8.h ****         }
 454:./lib/lib8tion/math8.h ****     } while (hi >= low);
 455:./lib/lib8tion/math8.h **** 
 456:./lib/lib8tion/math8.h ****     return low - 1;
  46              		.loc 1 456 16 view .LVU5
  47 0006 C0B2     		uxtb	r0, r0
  48              	.L3:
 457:./lib/lib8tion/math8.h **** }
  49              		.loc 1 457 1 view .LVU6
  50 0008 30BD     		pop	{r4, r5, pc}
  51              	.LVL2:
  52              	.L2:
 435:./lib/lib8tion/math8.h ****     uint8_t hi, mid;
  53              		.loc 1 435 5 is_stmt 1 view .LVU7
 436:./lib/lib8tion/math8.h **** 
  54              		.loc 1 436 5 view .LVU8
 438:./lib/lib8tion/math8.h ****         hi = 255;
  55              		.loc 1 438 5 view .LVU9
 438:./lib/lib8tion/math8.h ****         hi = 255;
  56              		.loc 1 438 7 is_stmt 0 view .LVU10
  57 000a B0F5F75F 		cmp	r0, #7904
 441:./lib/lib8tion/math8.h ****     }
  58              		.loc 1 441 9 is_stmt 1 view .LVU11
 441:./lib/lib8tion/math8.h ****     }
  59              		.loc 1 441 23 is_stmt 0 view .LVU12
  60 000e 9DBF     		ittte	ls
  61 0010 4209     		lsrls	r2, r0, #5
 441:./lib/lib8tion/math8.h ****     }
  62              		.loc 1 441 12 view .LVU13
  63 0012 0832     		addls	r2, r2, #8
  64 0014 D2B2     		uxtbls	r2, r2
  65              	.LVL3:
 439:./lib/lib8tion/math8.h ****     } else {
  66              		.loc 1 439 12 view .LVU14
  67 0016 FF22     		movhi	r2, #255
  68              	.LVL4:
 439:./lib/lib8tion/math8.h ****     } else {
  69              		.loc 1 439 12 view .LVU15
  70 0018 0124     		movs	r4, #1
  71              	.LVL5:
  72              	.L7:
 444:./lib/lib8tion/math8.h ****         mid = (low + hi) >> 1;
  73              		.loc 1 444 5 is_stmt 1 view .LVU16
 445:./lib/lib8tion/math8.h ****         if ((uint16_t)(mid * mid) > x) {
  74              		.loc 1 445 9 view .LVU17
 445:./lib/lib8tion/math8.h ****         if ((uint16_t)(mid * mid) > x) {
  75              		.loc 1 445 20 is_stmt 0 view .LVU18
  76 001a A318     		adds	r3, r4, r2
 445:./lib/lib8tion/math8.h ****         if ((uint16_t)(mid * mid) > x) {
  77              		.loc 1 445 26 view .LVU19
  78 001c 5910     		asrs	r1, r3, #1
 445:./lib/lib8tion/math8.h ****         if ((uint16_t)(mid * mid) > x) {
  79              		.loc 1 445 13 view .LVU20
  80 001e C3F34705 		ubfx	r5, r3, #1, #8
  81              	.LVL6:
 446:./lib/lib8tion/math8.h ****             hi = mid - 1;
  82              		.loc 1 446 9 is_stmt 1 view .LVU21
 446:./lib/lib8tion/math8.h ****             hi = mid - 1;
  83              		.loc 1 446 13 is_stmt 0 view .LVU22
  84 0022 C3F34F03 		ubfx	r3, r3, #1, #16
  85 0026 13FB03F3 		smulbb	r3, r3, r3
 446:./lib/lib8tion/math8.h ****             hi = mid - 1;
  86              		.loc 1 446 12 view .LVU23
  87 002a 9BB2     		uxth	r3, r3
  88 002c 8342     		cmp	r3, r0
  89 002e 05D9     		bls	.L5
 447:./lib/lib8tion/math8.h ****         } else {
  90              		.loc 1 447 13 is_stmt 1 view .LVU24
 447:./lib/lib8tion/math8.h ****         } else {
  91              		.loc 1 447 16 is_stmt 0 view .LVU25
  92 0030 6A1E     		subs	r2, r5, #1
  93              	.LVL7:
 447:./lib/lib8tion/math8.h ****         } else {
  94              		.loc 1 447 16 view .LVU26
  95 0032 D2B2     		uxtb	r2, r2
  96              	.LVL8:
  97              	.L6:
 454:./lib/lib8tion/math8.h **** 
  98              		.loc 1 454 13 is_stmt 1 view .LVU27
 454:./lib/lib8tion/math8.h **** 
  99              		.loc 1 454 5 is_stmt 0 view .LVU28
 100 0034 9442     		cmp	r4, r2
 101 0036 F0D9     		bls	.L7
 456:./lib/lib8tion/math8.h **** }
 102              		.loc 1 456 5 is_stmt 1 view .LVU29
 456:./lib/lib8tion/math8.h **** }
 103              		.loc 1 456 16 is_stmt 0 view .LVU30
 104 0038 601E     		subs	r0, r4, #1
 105              	.LVL9:
 456:./lib/lib8tion/math8.h **** }
 106              		.loc 1 456 16 view .LVU31
 107 003a E4E7     		b	.L11
 108              	.LVL10:
 109              	.L5:
 449:./lib/lib8tion/math8.h ****                 return 255;
 110              		.loc 1 449 13 is_stmt 1 view .LVU32
 449:./lib/lib8tion/math8.h ****                 return 255;
 111              		.loc 1 449 15 is_stmt 0 view .LVU33
 112 003c FF29     		cmp	r1, #255
 113 003e 02D0     		beq	.L9
 452:./lib/lib8tion/math8.h ****         }
 114              		.loc 1 452 13 is_stmt 1 view .LVU34
 452:./lib/lib8tion/math8.h ****         }
 115              		.loc 1 452 17 is_stmt 0 view .LVU35
 116 0040 6C1C     		adds	r4, r5, #1
 117              	.LVL11:
 452:./lib/lib8tion/math8.h ****         }
 118              		.loc 1 452 17 view .LVU36
 119 0042 E4B2     		uxtb	r4, r4
 120              	.LVL12:
 452:./lib/lib8tion/math8.h ****         }
 121              		.loc 1 452 17 view .LVU37
 122 0044 F6E7     		b	.L6
 123              	.L9:
 450:./lib/lib8tion/math8.h ****             }
 124              		.loc 1 450 24 view .LVU38
 125 0046 0846     		mov	r0, r1
 126              	.LVL13:
 450:./lib/lib8tion/math8.h ****             }
 127              		.loc 1 450 24 view .LVU39
 128 0048 DEE7     		b	.L3
 129              		.cfi_endproc
 130              	.LFE320:
 132              		.section	.text.sin8_C,"ax",%progbits
 133              		.align	1
 134              		.syntax unified
 135              		.thumb
 136              		.thumb_func
 137              		.fpu fpv4-sp-d16
 139              	sin8_C:
 140              	.LVL14:
 141              	.LFB335:
 142              		.file 2 "./lib/lib8tion/trig8.h"
   1:./lib/lib8tion/trig8.h **** #ifndef __INC_LIB8TION_TRIG_H
   2:./lib/lib8tion/trig8.h **** #define __INC_LIB8TION_TRIG_H
   3:./lib/lib8tion/trig8.h **** 
   4:./lib/lib8tion/trig8.h **** ///@ingroup lib8tion
   5:./lib/lib8tion/trig8.h **** 
   6:./lib/lib8tion/trig8.h **** ///@defgroup Trig Fast trig functions
   7:./lib/lib8tion/trig8.h **** /// Fast 8 and 16-bit approximations of sin(x) and cos(x).
   8:./lib/lib8tion/trig8.h **** ///        Don't use these approximations for calculating the
   9:./lib/lib8tion/trig8.h **** ///        trajectory of a rocket to Mars, but they're great
  10:./lib/lib8tion/trig8.h **** ///        for art projects and LED displays.
  11:./lib/lib8tion/trig8.h **** ///
  12:./lib/lib8tion/trig8.h **** ///        On Arduino/AVR, the 16-bit approximation is more than
  13:./lib/lib8tion/trig8.h **** ///        10X faster than floating point sin(x) and cos(x), while
  14:./lib/lib8tion/trig8.h **** /// the 8-bit approximation is more than 20X faster.
  15:./lib/lib8tion/trig8.h **** ///@{
  16:./lib/lib8tion/trig8.h **** 
  17:./lib/lib8tion/trig8.h **** #if defined(__AVR__)
  18:./lib/lib8tion/trig8.h **** #define sin16 sin16_avr
  19:./lib/lib8tion/trig8.h **** #else
  20:./lib/lib8tion/trig8.h **** #define sin16 sin16_C
  21:./lib/lib8tion/trig8.h **** #endif
  22:./lib/lib8tion/trig8.h **** 
  23:./lib/lib8tion/trig8.h **** /// Fast 16-bit approximation of sin(x). This approximation never varies more than
  24:./lib/lib8tion/trig8.h **** /// 0.69% from the floating point value you'd get by doing
  25:./lib/lib8tion/trig8.h **** ///
  26:./lib/lib8tion/trig8.h **** ///     float s = sin(x) * 32767.0;
  27:./lib/lib8tion/trig8.h **** ///
  28:./lib/lib8tion/trig8.h **** /// @param theta input angle from 0-65535
  29:./lib/lib8tion/trig8.h **** /// @returns sin of theta, value between -32767 to 32767.
  30:./lib/lib8tion/trig8.h **** LIB8STATIC int16_t sin16_avr( uint16_t theta )
  31:./lib/lib8tion/trig8.h **** {
  32:./lib/lib8tion/trig8.h ****     static const uint8_t data[] =
  33:./lib/lib8tion/trig8.h ****     { 0,         0,         49, 0, 6393%256,   6393/256, 48, 0,
  34:./lib/lib8tion/trig8.h ****       12539%256, 12539/256, 44, 0, 18204%256, 18204/256, 38, 0,
  35:./lib/lib8tion/trig8.h ****       23170%256, 23170/256, 31, 0, 27245%256, 27245/256, 23, 0,
  36:./lib/lib8tion/trig8.h ****       30273%256, 30273/256, 14, 0, 32137%256, 32137/256,  4 /*,0*/ };
  37:./lib/lib8tion/trig8.h **** 
  38:./lib/lib8tion/trig8.h ****     uint16_t offset = (theta & 0x3FFF);
  39:./lib/lib8tion/trig8.h **** 
  40:./lib/lib8tion/trig8.h ****     // AVR doesn't have a multi-bit shift instruction,
  41:./lib/lib8tion/trig8.h ****     // so if we say "offset >>= 3", gcc makes a tiny loop.
  42:./lib/lib8tion/trig8.h ****     // Inserting empty volatile statements between each
  43:./lib/lib8tion/trig8.h ****     // bit shift forces gcc to unroll the loop.
  44:./lib/lib8tion/trig8.h ****     offset >>= 1; // 0..8191
  45:./lib/lib8tion/trig8.h ****     asm volatile("");
  46:./lib/lib8tion/trig8.h ****     offset >>= 1; // 0..4095
  47:./lib/lib8tion/trig8.h ****     asm volatile("");
  48:./lib/lib8tion/trig8.h ****     offset >>= 1; // 0..2047
  49:./lib/lib8tion/trig8.h **** 
  50:./lib/lib8tion/trig8.h ****     if( theta & 0x4000 ) offset = 2047 - offset;
  51:./lib/lib8tion/trig8.h **** 
  52:./lib/lib8tion/trig8.h ****     uint8_t sectionX4;
  53:./lib/lib8tion/trig8.h ****     sectionX4 = offset / 256;
  54:./lib/lib8tion/trig8.h ****     sectionX4 *= 4;
  55:./lib/lib8tion/trig8.h **** 
  56:./lib/lib8tion/trig8.h ****     uint8_t m;
  57:./lib/lib8tion/trig8.h **** 
  58:./lib/lib8tion/trig8.h ****     union {
  59:./lib/lib8tion/trig8.h ****         uint16_t b;
  60:./lib/lib8tion/trig8.h ****         struct {
  61:./lib/lib8tion/trig8.h ****             uint8_t blo;
  62:./lib/lib8tion/trig8.h ****             uint8_t bhi;
  63:./lib/lib8tion/trig8.h ****         };
  64:./lib/lib8tion/trig8.h ****     } u;
  65:./lib/lib8tion/trig8.h **** 
  66:./lib/lib8tion/trig8.h ****     //in effect u.b = blo + (256 * bhi);
  67:./lib/lib8tion/trig8.h ****     u.blo = data[ sectionX4 ];
  68:./lib/lib8tion/trig8.h ****     u.bhi = data[ sectionX4 + 1];
  69:./lib/lib8tion/trig8.h ****     m     = data[ sectionX4 + 2];
  70:./lib/lib8tion/trig8.h **** 
  71:./lib/lib8tion/trig8.h ****     uint8_t secoffset8 = (uint8_t)(offset) / 2;
  72:./lib/lib8tion/trig8.h **** 
  73:./lib/lib8tion/trig8.h ****     uint16_t mx = m * secoffset8;
  74:./lib/lib8tion/trig8.h **** 
  75:./lib/lib8tion/trig8.h ****     int16_t  y  = mx + u.b;
  76:./lib/lib8tion/trig8.h ****     if( theta & 0x8000 ) y = -y;
  77:./lib/lib8tion/trig8.h **** 
  78:./lib/lib8tion/trig8.h ****     return y;
  79:./lib/lib8tion/trig8.h **** }
  80:./lib/lib8tion/trig8.h **** 
  81:./lib/lib8tion/trig8.h **** /// Fast 16-bit approximation of sin(x). This approximation never varies more than
  82:./lib/lib8tion/trig8.h **** /// 0.69% from the floating point value you'd get by doing
  83:./lib/lib8tion/trig8.h **** ///
  84:./lib/lib8tion/trig8.h **** ///     float s = sin(x) * 32767.0;
  85:./lib/lib8tion/trig8.h **** ///
  86:./lib/lib8tion/trig8.h **** /// @param theta input angle from 0-65535
  87:./lib/lib8tion/trig8.h **** /// @returns sin of theta, value between -32767 to 32767.
  88:./lib/lib8tion/trig8.h **** LIB8STATIC int16_t sin16_C( uint16_t theta )
  89:./lib/lib8tion/trig8.h **** {
  90:./lib/lib8tion/trig8.h ****     static const uint16_t base[] =
  91:./lib/lib8tion/trig8.h ****     { 0, 6393, 12539, 18204, 23170, 27245, 30273, 32137 };
  92:./lib/lib8tion/trig8.h ****     static const uint8_t slope[] =
  93:./lib/lib8tion/trig8.h ****     { 49, 48, 44, 38, 31, 23, 14, 4 };
  94:./lib/lib8tion/trig8.h **** 
  95:./lib/lib8tion/trig8.h ****     uint16_t offset = (theta & 0x3FFF) >> 3; // 0..2047
  96:./lib/lib8tion/trig8.h ****     if( theta & 0x4000 ) offset = 2047 - offset;
  97:./lib/lib8tion/trig8.h **** 
  98:./lib/lib8tion/trig8.h ****     uint8_t section = offset / 256; // 0..7
  99:./lib/lib8tion/trig8.h ****     uint16_t b   = base[section];
 100:./lib/lib8tion/trig8.h ****     uint8_t  m   = slope[section];
 101:./lib/lib8tion/trig8.h **** 
 102:./lib/lib8tion/trig8.h ****     uint8_t secoffset8 = (uint8_t)(offset) / 2;
 103:./lib/lib8tion/trig8.h **** 
 104:./lib/lib8tion/trig8.h ****     uint16_t mx = m * secoffset8;
 105:./lib/lib8tion/trig8.h ****     int16_t  y  = mx + b;
 106:./lib/lib8tion/trig8.h **** 
 107:./lib/lib8tion/trig8.h ****     if( theta & 0x8000 ) y = -y;
 108:./lib/lib8tion/trig8.h **** 
 109:./lib/lib8tion/trig8.h ****     return y;
 110:./lib/lib8tion/trig8.h **** }
 111:./lib/lib8tion/trig8.h **** 
 112:./lib/lib8tion/trig8.h **** 
 113:./lib/lib8tion/trig8.h **** /// Fast 16-bit approximation of cos(x). This approximation never varies more than
 114:./lib/lib8tion/trig8.h **** /// 0.69% from the floating point value you'd get by doing
 115:./lib/lib8tion/trig8.h **** ///
 116:./lib/lib8tion/trig8.h **** ///     float s = cos(x) * 32767.0;
 117:./lib/lib8tion/trig8.h **** ///
 118:./lib/lib8tion/trig8.h **** /// @param theta input angle from 0-65535
 119:./lib/lib8tion/trig8.h **** /// @returns sin of theta, value between -32767 to 32767.
 120:./lib/lib8tion/trig8.h **** LIB8STATIC int16_t cos16( uint16_t theta)
 121:./lib/lib8tion/trig8.h **** {
 122:./lib/lib8tion/trig8.h ****     return sin16( theta + 16384);
 123:./lib/lib8tion/trig8.h **** }
 124:./lib/lib8tion/trig8.h **** 
 125:./lib/lib8tion/trig8.h **** ///////////////////////////////////////////////////////////////////////
 126:./lib/lib8tion/trig8.h **** 
 127:./lib/lib8tion/trig8.h **** // sin8 & cos8
 128:./lib/lib8tion/trig8.h **** //        Fast 8-bit approximations of sin(x) & cos(x).
 129:./lib/lib8tion/trig8.h **** //        Input angle is an unsigned int from 0-255.
 130:./lib/lib8tion/trig8.h **** //        Output is an unsigned int from 0 to 255.
 131:./lib/lib8tion/trig8.h **** //
 132:./lib/lib8tion/trig8.h **** //        This approximation can vary to to 2%
 133:./lib/lib8tion/trig8.h **** //        from the floating point value you'd get by doing
 134:./lib/lib8tion/trig8.h **** //          float s = (sin( x ) * 128.0) + 128;
 135:./lib/lib8tion/trig8.h **** //
 136:./lib/lib8tion/trig8.h **** //        Don't use this approximation for calculating the
 137:./lib/lib8tion/trig8.h **** //        "real" trigonometric calculations, but it's great
 138:./lib/lib8tion/trig8.h **** //        for art projects and LED displays.
 139:./lib/lib8tion/trig8.h **** //
 140:./lib/lib8tion/trig8.h **** //        On Arduino/AVR, this approximation is more than
 141:./lib/lib8tion/trig8.h **** //        20X faster than floating point sin(x) and cos(x)
 142:./lib/lib8tion/trig8.h **** 
 143:./lib/lib8tion/trig8.h **** #if defined(__AVR__) && !defined(LIB8_ATTINY)
 144:./lib/lib8tion/trig8.h **** #define sin8 sin8_avr
 145:./lib/lib8tion/trig8.h **** #else
 146:./lib/lib8tion/trig8.h **** #define sin8 sin8_C
 147:./lib/lib8tion/trig8.h **** #endif
 148:./lib/lib8tion/trig8.h **** 
 149:./lib/lib8tion/trig8.h **** 
 150:./lib/lib8tion/trig8.h **** static const uint8_t b_m16_interleave[8] = { 0, 49, 49, 41, 90, 27, 117, 10 };
 151:./lib/lib8tion/trig8.h **** 
 152:./lib/lib8tion/trig8.h **** /// Fast 8-bit approximation of sin(x). This approximation never varies more than
 153:./lib/lib8tion/trig8.h **** /// 2% from the floating point value you'd get by doing
 154:./lib/lib8tion/trig8.h **** ///
 155:./lib/lib8tion/trig8.h **** ///     float s = (sin(x) * 128.0) + 128;
 156:./lib/lib8tion/trig8.h **** ///
 157:./lib/lib8tion/trig8.h **** /// @param theta input angle from 0-255
 158:./lib/lib8tion/trig8.h **** /// @returns sin of theta, value between 0 and 255
 159:./lib/lib8tion/trig8.h **** LIB8STATIC uint8_t  sin8_avr( uint8_t theta)
 160:./lib/lib8tion/trig8.h **** {
 161:./lib/lib8tion/trig8.h ****     uint8_t offset = theta;
 162:./lib/lib8tion/trig8.h **** 
 163:./lib/lib8tion/trig8.h ****     asm volatile(
 164:./lib/lib8tion/trig8.h ****                  "sbrc %[theta],6         \n\t"
 165:./lib/lib8tion/trig8.h ****                  "com  %[offset]           \n\t"
 166:./lib/lib8tion/trig8.h ****                  : [theta] "+r" (theta), [offset] "+r" (offset)
 167:./lib/lib8tion/trig8.h ****                  );
 168:./lib/lib8tion/trig8.h **** 
 169:./lib/lib8tion/trig8.h ****     offset &= 0x3F; // 0..63
 170:./lib/lib8tion/trig8.h **** 
 171:./lib/lib8tion/trig8.h ****     uint8_t secoffset  = offset & 0x0F; // 0..15
 172:./lib/lib8tion/trig8.h ****     if( theta & 0x40) secoffset++;
 173:./lib/lib8tion/trig8.h **** 
 174:./lib/lib8tion/trig8.h ****     uint8_t m16; uint8_t b;
 175:./lib/lib8tion/trig8.h **** 
 176:./lib/lib8tion/trig8.h ****     uint8_t section = offset >> 4; // 0..3
 177:./lib/lib8tion/trig8.h ****     uint8_t s2 = section * 2;
 178:./lib/lib8tion/trig8.h **** 
 179:./lib/lib8tion/trig8.h ****     const uint8_t* p = b_m16_interleave;
 180:./lib/lib8tion/trig8.h ****     p += s2;
 181:./lib/lib8tion/trig8.h ****     b   = *p;
 182:./lib/lib8tion/trig8.h ****     p++;
 183:./lib/lib8tion/trig8.h ****     m16 = *p;
 184:./lib/lib8tion/trig8.h **** 
 185:./lib/lib8tion/trig8.h ****     uint8_t mx;
 186:./lib/lib8tion/trig8.h ****     uint8_t xr1;
 187:./lib/lib8tion/trig8.h ****     asm volatile(
 188:./lib/lib8tion/trig8.h ****                  "mul %[m16],%[secoffset]   \n\t"
 189:./lib/lib8tion/trig8.h ****                  "mov %[mx],r0              \n\t"
 190:./lib/lib8tion/trig8.h ****                  "mov %[xr1],r1             \n\t"
 191:./lib/lib8tion/trig8.h ****                  "eor  r1, r1               \n\t"
 192:./lib/lib8tion/trig8.h ****                  "swap %[mx]                \n\t"
 193:./lib/lib8tion/trig8.h ****                  "andi %[mx],0x0F           \n\t"
 194:./lib/lib8tion/trig8.h ****                  "swap %[xr1]               \n\t"
 195:./lib/lib8tion/trig8.h ****                  "andi %[xr1], 0xF0         \n\t"
 196:./lib/lib8tion/trig8.h ****                  "or   %[mx], %[xr1]        \n\t"
 197:./lib/lib8tion/trig8.h ****                  : [mx] "=d" (mx), [xr1] "=d" (xr1)
 198:./lib/lib8tion/trig8.h ****                  : [m16] "d" (m16), [secoffset] "d" (secoffset)
 199:./lib/lib8tion/trig8.h ****                  );
 200:./lib/lib8tion/trig8.h **** 
 201:./lib/lib8tion/trig8.h ****     int8_t y = mx + b;
 202:./lib/lib8tion/trig8.h ****     if( theta & 0x80 ) y = -y;
 203:./lib/lib8tion/trig8.h **** 
 204:./lib/lib8tion/trig8.h ****     y += 128;
 205:./lib/lib8tion/trig8.h **** 
 206:./lib/lib8tion/trig8.h ****     return y;
 207:./lib/lib8tion/trig8.h **** }
 208:./lib/lib8tion/trig8.h **** 
 209:./lib/lib8tion/trig8.h **** 
 210:./lib/lib8tion/trig8.h **** /// Fast 8-bit approximation of sin(x). This approximation never varies more than
 211:./lib/lib8tion/trig8.h **** /// 2% from the floating point value you'd get by doing
 212:./lib/lib8tion/trig8.h **** ///
 213:./lib/lib8tion/trig8.h **** ///     float s = (sin(x) * 128.0) + 128;
 214:./lib/lib8tion/trig8.h **** ///
 215:./lib/lib8tion/trig8.h **** /// @param theta input angle from 0-255
 216:./lib/lib8tion/trig8.h **** /// @returns sin of theta, value between 0 and 255
 217:./lib/lib8tion/trig8.h **** LIB8STATIC uint8_t sin8_C( uint8_t theta)
 218:./lib/lib8tion/trig8.h **** {
 143              		.loc 2 218 1 is_stmt 1 view -0
 144              		.cfi_startproc
 145              		@ args = 0, pretend = 0, frame = 0
 146              		@ frame_needed = 0, uses_anonymous_args = 0
 219:./lib/lib8tion/trig8.h ****     uint8_t offset = theta;
 147              		.loc 2 219 5 view .LVU41
 220:./lib/lib8tion/trig8.h ****     if( theta & 0x40 ) {
 148              		.loc 2 220 5 view .LVU42
 149              		.loc 2 220 7 is_stmt 0 view .LVU43
 150 0000 10F04003 		ands	r3, r0, #64
 221:./lib/lib8tion/trig8.h ****         offset = (uint8_t)255 - offset;
 151              		.loc 2 221 9 is_stmt 1 view .LVU44
 152              		.loc 2 221 16 is_stmt 0 view .LVU45
 153 0004 1ABF     		itte	ne
 154 0006 C243     		mvnne	r2, r0
 155 0008 D2B2     		uxtbne	r2, r2
 156              	.LVL15:
 157              		.loc 2 221 16 view .LVU46
 158 000a 0246     		moveq	r2, r0
 159              	.LVL16:
 222:./lib/lib8tion/trig8.h ****     }
 223:./lib/lib8tion/trig8.h ****     offset &= 0x3F; // 0..63
 160              		.loc 2 223 5 is_stmt 1 view .LVU47
 224:./lib/lib8tion/trig8.h **** 
 225:./lib/lib8tion/trig8.h ****     uint8_t secoffset  = offset & 0x0F; // 0..15
 161              		.loc 2 225 5 view .LVU48
 218:./lib/lib8tion/trig8.h ****     uint8_t offset = theta;
 162              		.loc 2 218 1 is_stmt 0 view .LVU49
 163 000c 10B5     		push	{r4, lr}
 164              		.cfi_def_cfa_offset 8
 165              		.cfi_offset 4, -8
 166              		.cfi_offset 14, -4
 167              		.loc 2 225 13 view .LVU50
 168 000e 02F00F01 		and	r1, r2, #15
 169              	.LVL17:
 226:./lib/lib8tion/trig8.h ****     if( theta & 0x40) secoffset++;
 170              		.loc 2 226 5 is_stmt 1 view .LVU51
 171              		.loc 2 226 7 is_stmt 0 view .LVU52
 172 0012 03B1     		cbz	r3, .L14
 173              		.loc 2 226 23 is_stmt 1 discriminator 1 view .LVU53
 174              		.loc 2 226 32 is_stmt 0 discriminator 1 view .LVU54
 175 0014 0131     		adds	r1, r1, #1
 176              	.LVL18:
 177              	.L14:
 227:./lib/lib8tion/trig8.h **** 
 228:./lib/lib8tion/trig8.h ****     uint8_t section = offset >> 4; // 0..3
 178              		.loc 2 228 5 is_stmt 1 view .LVU55
 229:./lib/lib8tion/trig8.h ****     uint8_t s2 = section * 2;
 179              		.loc 2 229 5 view .LVU56
 230:./lib/lib8tion/trig8.h ****     const uint8_t* p = b_m16_interleave;
 180              		.loc 2 230 5 view .LVU57
 231:./lib/lib8tion/trig8.h ****     p += s2;
 181              		.loc 2 231 5 view .LVU58
 182              		.loc 2 231 7 is_stmt 0 view .LVU59
 183 0016 0A4C     		ldr	r4, .L20
 228:./lib/lib8tion/trig8.h ****     uint8_t s2 = section * 2;
 184              		.loc 2 228 13 view .LVU60
 185 0018 C2F30112 		ubfx	r2, r2, #4, #2
 186              	.LVL19:
 187              		.loc 2 231 7 view .LVU61
 188 001c 04EB4203 		add	r3, r4, r2, lsl #1
 189              	.LVL20:
 232:./lib/lib8tion/trig8.h ****     uint8_t b   =  *p;
 190              		.loc 2 232 5 is_stmt 1 view .LVU62
 233:./lib/lib8tion/trig8.h ****     p++;
 191              		.loc 2 233 5 view .LVU63
 234:./lib/lib8tion/trig8.h ****     uint8_t m16 =  *p;
 192              		.loc 2 234 5 view .LVU64
 235:./lib/lib8tion/trig8.h **** 
 236:./lib/lib8tion/trig8.h ****     uint8_t mx = (m16 * secoffset) >> 4;
 193              		.loc 2 236 5 view .LVU65
 237:./lib/lib8tion/trig8.h **** 
 238:./lib/lib8tion/trig8.h ****     int8_t y = mx + b;
 194              		.loc 2 238 5 view .LVU66
 236:./lib/lib8tion/trig8.h **** 
 195              		.loc 2 236 23 is_stmt 0 view .LVU67
 196 0020 5B78     		ldrb	r3, [r3, #1]	@ zero_extendqisi2
 197              	.LVL21:
 236:./lib/lib8tion/trig8.h **** 
 198              		.loc 2 236 23 view .LVU68
 199 0022 13FB01F1 		smulbb	r1, r3, r1
 200              	.LVL22:
 201              		.loc 2 238 19 view .LVU69
 202 0026 14F81230 		ldrb	r3, [r4, r2, lsl #1]	@ zero_extendqisi2
 203 002a 03EB2113 		add	r3, r3, r1, asr #4
 204 002e DBB2     		uxtb	r3, r3
 205              	.LVL23:
 239:./lib/lib8tion/trig8.h ****     if( theta & 0x80 ) y = -y;
 206              		.loc 2 239 5 is_stmt 1 view .LVU70
 207              		.loc 2 239 7 is_stmt 0 view .LVU71
 208 0030 0206     		lsls	r2, r0, #24
 209              	.LVL24:
 210              		.loc 2 239 24 is_stmt 1 view .LVU72
 211              		.loc 2 239 26 is_stmt 0 view .LVU73
 212 0032 44BF     		itt	mi
 213 0034 5B42     		rsbmi	r3, r3, #0
 214              	.LVL25:
 215              		.loc 2 239 26 view .LVU74
 216 0036 DBB2     		uxtbmi	r3, r3
 217              	.LVL26:
 240:./lib/lib8tion/trig8.h **** 
 241:./lib/lib8tion/trig8.h ****     y += 128;
 218              		.loc 2 241 5 is_stmt 1 view .LVU75
 242:./lib/lib8tion/trig8.h **** 
 243:./lib/lib8tion/trig8.h ****     return y;
 219              		.loc 2 243 5 view .LVU76
 244:./lib/lib8tion/trig8.h **** }
 220              		.loc 2 244 1 is_stmt 0 view .LVU77
 221 0038 83F08000 		eor	r0, r3, #128
 222              	.LVL27:
 223              		.loc 2 244 1 view .LVU78
 224 003c 10BD     		pop	{r4, pc}
 225              	.L21:
 226 003e 00BF     		.align	2
 227              	.L20:
 228 0040 00000000 		.word	.LANCHOR0
 229              		.cfi_endproc
 230              	.LFE335:
 232              		.section	.text.BAND_SAT_math,"ax",%progbits
 233              		.align	1
 234              		.syntax unified
 235              		.thumb
 236              		.thumb_func
 237              		.fpu fpv4-sp-d16
 239              	BAND_SAT_math:
 240              	.LVL28:
 241              	.LFB373:
 242              		.file 3 "quantum/rgb_matrix/animations/colorband_sat_anim.h"
   1:quantum/rgb_matrix/animations/colorband_sat_anim.h **** #ifndef DISABLE_RGB_MATRIX_BAND_SAT
   2:quantum/rgb_matrix/animations/colorband_sat_anim.h **** RGB_MATRIX_EFFECT(BAND_SAT)
   3:quantum/rgb_matrix/animations/colorband_sat_anim.h **** #    ifdef RGB_MATRIX_CUSTOM_EFFECT_IMPLS
   4:quantum/rgb_matrix/animations/colorband_sat_anim.h **** 
   5:quantum/rgb_matrix/animations/colorband_sat_anim.h **** static HSV BAND_SAT_math(HSV hsv, uint8_t i, uint8_t time) {
 243              		.loc 3 5 60 is_stmt 1 view -0
 244              		.cfi_startproc
 245              		@ args = 0, pretend = 0, frame = 16
 246              		@ frame_needed = 0, uses_anonymous_args = 0
 247              		@ link register save eliminated.
 248              		.loc 3 5 60 is_stmt 0 view .LVU80
 249 0000 84B0     		sub	sp, sp, #16
 250              		.cfi_def_cfa_offset 16
 251 0002 C0F30723 		ubfx	r3, r0, #8, #8
 252              	.LVL29:
   6:quantum/rgb_matrix/animations/colorband_sat_anim.h ****     int16_t s = hsv.s - abs(scale8(g_led_config.point[i].x, 228) + 28 - time) * 8;
 253              		.loc 3 6 5 is_stmt 1 view .LVU81
 254              	.LBB110:
 255              	.LBI110:
 256              		.file 4 "./lib/lib8tion/scale8.h"
   1:./lib/lib8tion/scale8.h **** #ifndef __INC_LIB8TION_SCALE_H
   2:./lib/lib8tion/scale8.h **** #define __INC_LIB8TION_SCALE_H
   3:./lib/lib8tion/scale8.h **** 
   4:./lib/lib8tion/scale8.h **** ///@ingroup lib8tion
   5:./lib/lib8tion/scale8.h **** 
   6:./lib/lib8tion/scale8.h **** ///@defgroup Scaling Scaling functions
   7:./lib/lib8tion/scale8.h **** /// Fast, efficient 8-bit scaling functions specifically
   8:./lib/lib8tion/scale8.h **** /// designed for high-performance LED programming.
   9:./lib/lib8tion/scale8.h **** ///
  10:./lib/lib8tion/scale8.h **** /// Because of the AVR(Arduino) and ARM assembly language
  11:./lib/lib8tion/scale8.h **** /// implementations provided, using these functions often
  12:./lib/lib8tion/scale8.h **** /// results in smaller and faster code than the equivalent
  13:./lib/lib8tion/scale8.h **** /// program using plain "C" arithmetic and logic.
  14:./lib/lib8tion/scale8.h **** ///@{
  15:./lib/lib8tion/scale8.h **** 
  16:./lib/lib8tion/scale8.h **** ///  scale one byte by a second one, which is treated as
  17:./lib/lib8tion/scale8.h **** ///  the numerator of a fraction whose denominator is 256
  18:./lib/lib8tion/scale8.h **** ///  In other words, it computes i * (scale / 256)
  19:./lib/lib8tion/scale8.h **** ///  4 clocks AVR with MUL, 2 clocks ARM
  20:./lib/lib8tion/scale8.h **** LIB8STATIC_ALWAYS_INLINE uint8_t scale8( uint8_t i, fract8 scale)
 257              		.loc 4 20 34 view .LVU82
 258              	.LBB111:
  21:./lib/lib8tion/scale8.h **** {
  22:./lib/lib8tion/scale8.h **** #if SCALE8_C == 1
  23:./lib/lib8tion/scale8.h **** #if (FASTLED_SCALE8_FIXED == 1)
  24:./lib/lib8tion/scale8.h ****     return (((uint16_t)i) * (1+(uint16_t)(scale))) >> 8;
  25:./lib/lib8tion/scale8.h **** #else
  26:./lib/lib8tion/scale8.h ****     return ((uint16_t)i * (uint16_t)(scale) ) >> 8;
 259              		.loc 4 26 5 view .LVU83
 260              		.loc 4 26 5 is_stmt 0 view .LVU84
 261              	.LBE111:
 262              	.LBE110:
   7:quantum/rgb_matrix/animations/colorband_sat_anim.h ****     hsv.s     = scale8(s < 0 ? 0 : s, hsv.s);
 263              		.loc 3 7 5 is_stmt 1 view .LVU85
 264              	.LBB113:
 265              	.LBI113:
  20:./lib/lib8tion/scale8.h **** {
 266              		.loc 4 20 34 view .LVU86
 267              	.LBB114:
 268              		.loc 4 26 5 view .LVU87
 269              		.loc 4 26 5 is_stmt 0 view .LVU88
 270              	.LBE114:
 271              	.LBE113:
   8:quantum/rgb_matrix/animations/colorband_sat_anim.h ****     return hsv;
 272              		.loc 3 8 5 is_stmt 1 view .LVU89
   5:quantum/rgb_matrix/animations/colorband_sat_anim.h ****     int16_t s = hsv.s - abs(scale8(g_led_config.point[i].x, 228) + 28 - time) * 8;
 273              		.loc 3 5 60 is_stmt 0 view .LVU90
 274 0006 0190     		str	r0, [sp, #4]
   6:quantum/rgb_matrix/animations/colorband_sat_anim.h ****     hsv.s     = scale8(s < 0 ? 0 : s, hsv.s);
 275              		.loc 3 6 29 view .LVU91
 276 0008 2C31     		adds	r1, r1, #44
 277              	.LVL30:
 278              	.LBB116:
 279              	.LBB112:
 280              		.loc 4 26 25 view .LVU92
 281 000a 1248     		ldr	r0, .L23
 282 000c 10F81100 		ldrb	r0, [r0, r1, lsl #1]	@ zero_extendqisi2
 283 0010 E421     		movs	r1, #228
 284              	.LVL31:
 285              		.loc 4 26 25 view .LVU93
 286 0012 10FB01F0 		smulbb	r0, r0, r1
 287              	.LBE112:
 288              	.LBE116:
   6:quantum/rgb_matrix/animations/colorband_sat_anim.h ****     hsv.s     = scale8(s < 0 ? 0 : s, hsv.s);
 289              		.loc 3 6 66 view .LVU94
 290 0016 C2EB1020 		rsb	r0, r2, r0, lsr #8
   6:quantum/rgb_matrix/animations/colorband_sat_anim.h ****     hsv.s     = scale8(s < 0 ? 0 : s, hsv.s);
 291              		.loc 3 6 71 view .LVU95
 292 001a 1C30     		adds	r0, r0, #28
   6:quantum/rgb_matrix/animations/colorband_sat_anim.h ****     hsv.s     = scale8(s < 0 ? 0 : s, hsv.s);
 293              		.loc 3 6 25 view .LVU96
 294 001c 0028     		cmp	r0, #0
 295 001e B8BF     		it	lt
 296 0020 4042     		rsblt	r0, r0, #0
   6:quantum/rgb_matrix/animations/colorband_sat_anim.h ****     hsv.s     = scale8(s < 0 ? 0 : s, hsv.s);
 297              		.loc 3 6 23 view .LVU97
 298 0022 A3EBC000 		sub	r0, r3, r0, lsl #3
   7:quantum/rgb_matrix/animations/colorband_sat_anim.h ****     return hsv;
 299              		.loc 3 7 34 view .LVU98
 300 0026 00B2     		sxth	r0, r0
 301 0028 20EAE070 		bic	r0, r0, r0, asr #31
 302              	.LBB117:
 303              	.LBB115:
 304              		.loc 4 26 25 view .LVU99
 305 002c 10FB03F0 		smulbb	r0, r0, r3
 306              		.loc 4 26 47 view .LVU100
 307 0030 0012     		asrs	r0, r0, #8
 308 0032 8DF80500 		strb	r0, [sp, #5]
 309              	.LBE115:
 310              	.LBE117:
 311              		.loc 3 8 12 view .LVU101
 312 0036 019B     		ldr	r3, [sp, #4]
 313              		.loc 3 8 12 view .LVU102
 314 0038 0020     		movs	r0, #0
 315 003a DAB2     		uxtb	r2, r3
 316              	.LVL32:
 317              		.loc 3 8 12 view .LVU103
 318 003c 62F30700 		bfi	r0, r2, #0, #8
 319 0040 C3F30722 		ubfx	r2, r3, #8, #8
 320 0044 62F30F20 		bfi	r0, r2, #8, #8
 321 0048 C3F30743 		ubfx	r3, r3, #16, #8
 322 004c 63F31740 		bfi	r0, r3, #16, #8
   9:quantum/rgb_matrix/animations/colorband_sat_anim.h **** }
 323              		.loc 3 9 1 view .LVU104
 324 0050 04B0     		add	sp, sp, #16
 325              		.cfi_def_cfa_offset 0
 326              		@ sp needed
 327 0052 7047     		bx	lr
 328              	.L24:
 329              		.align	2
 330              	.L23:
 331 0054 00000000 		.word	g_led_config
 332              		.cfi_endproc
 333              	.LFE373:
 335              		.section	.text.BAND_VAL_math,"ax",%progbits
 336              		.align	1
 337              		.syntax unified
 338              		.thumb
 339              		.thumb_func
 340              		.fpu fpv4-sp-d16
 342              	BAND_VAL_math:
 343              	.LVL33:
 344              	.LFB375:
 345              		.file 5 "quantum/rgb_matrix/animations/colorband_val_anim.h"
   1:quantum/rgb_matrix/animations/colorband_val_anim.h **** #ifndef DISABLE_RGB_MATRIX_BAND_VAL
   2:quantum/rgb_matrix/animations/colorband_val_anim.h **** RGB_MATRIX_EFFECT(BAND_VAL)
   3:quantum/rgb_matrix/animations/colorband_val_anim.h **** #    ifdef RGB_MATRIX_CUSTOM_EFFECT_IMPLS
   4:quantum/rgb_matrix/animations/colorband_val_anim.h **** 
   5:quantum/rgb_matrix/animations/colorband_val_anim.h **** static HSV BAND_VAL_math(HSV hsv, uint8_t i, uint8_t time) {
 346              		.loc 5 5 60 is_stmt 1 view -0
 347              		.cfi_startproc
 348              		@ args = 0, pretend = 0, frame = 16
 349              		@ frame_needed = 0, uses_anonymous_args = 0
 350              		@ link register save eliminated.
 351              		.loc 5 5 60 is_stmt 0 view .LVU106
 352 0000 84B0     		sub	sp, sp, #16
 353              		.cfi_def_cfa_offset 16
 354 0002 C0F30743 		ubfx	r3, r0, #16, #8
 355              	.LVL34:
   6:quantum/rgb_matrix/animations/colorband_val_anim.h ****     int16_t v = hsv.v - abs(scale8(g_led_config.point[i].x, 228) + 28 - time) * 8;
 356              		.loc 5 6 5 is_stmt 1 view .LVU107
 357              	.LBB118:
 358              	.LBI118:
  20:./lib/lib8tion/scale8.h **** {
 359              		.loc 4 20 34 view .LVU108
 360              	.LBB119:
 361              		.loc 4 26 5 view .LVU109
 362              		.loc 4 26 5 is_stmt 0 view .LVU110
 363              	.LBE119:
 364              	.LBE118:
   7:quantum/rgb_matrix/animations/colorband_val_anim.h ****     hsv.v     = scale8(v < 0 ? 0 : v, hsv.v);
 365              		.loc 5 7 5 is_stmt 1 view .LVU111
 366              	.LBB121:
 367              	.LBI121:
  20:./lib/lib8tion/scale8.h **** {
 368              		.loc 4 20 34 view .LVU112
 369              	.LBB122:
 370              		.loc 4 26 5 view .LVU113
 371              		.loc 4 26 5 is_stmt 0 view .LVU114
 372              	.LBE122:
 373              	.LBE121:
   8:quantum/rgb_matrix/animations/colorband_val_anim.h ****     return hsv;
 374              		.loc 5 8 5 is_stmt 1 view .LVU115
   5:quantum/rgb_matrix/animations/colorband_val_anim.h ****     int16_t v = hsv.v - abs(scale8(g_led_config.point[i].x, 228) + 28 - time) * 8;
 375              		.loc 5 5 60 is_stmt 0 view .LVU116
 376 0006 0190     		str	r0, [sp, #4]
   6:quantum/rgb_matrix/animations/colorband_val_anim.h ****     hsv.v     = scale8(v < 0 ? 0 : v, hsv.v);
 377              		.loc 5 6 29 view .LVU117
 378 0008 2C31     		adds	r1, r1, #44
 379              	.LVL35:
 380              	.LBB124:
 381              	.LBB120:
 382              		.loc 4 26 25 view .LVU118
 383 000a 1248     		ldr	r0, .L26
 384 000c 10F81100 		ldrb	r0, [r0, r1, lsl #1]	@ zero_extendqisi2
 385 0010 E421     		movs	r1, #228
 386              	.LVL36:
 387              		.loc 4 26 25 view .LVU119
 388 0012 10FB01F0 		smulbb	r0, r0, r1
 389              	.LBE120:
 390              	.LBE124:
   6:quantum/rgb_matrix/animations/colorband_val_anim.h ****     hsv.v     = scale8(v < 0 ? 0 : v, hsv.v);
 391              		.loc 5 6 66 view .LVU120
 392 0016 C2EB1020 		rsb	r0, r2, r0, lsr #8
   6:quantum/rgb_matrix/animations/colorband_val_anim.h ****     hsv.v     = scale8(v < 0 ? 0 : v, hsv.v);
 393              		.loc 5 6 71 view .LVU121
 394 001a 1C30     		adds	r0, r0, #28
   6:quantum/rgb_matrix/animations/colorband_val_anim.h ****     hsv.v     = scale8(v < 0 ? 0 : v, hsv.v);
 395              		.loc 5 6 25 view .LVU122
 396 001c 0028     		cmp	r0, #0
 397 001e B8BF     		it	lt
 398 0020 4042     		rsblt	r0, r0, #0
   6:quantum/rgb_matrix/animations/colorband_val_anim.h ****     hsv.v     = scale8(v < 0 ? 0 : v, hsv.v);
 399              		.loc 5 6 23 view .LVU123
 400 0022 A3EBC000 		sub	r0, r3, r0, lsl #3
   7:quantum/rgb_matrix/animations/colorband_val_anim.h ****     return hsv;
 401              		.loc 5 7 34 view .LVU124
 402 0026 00B2     		sxth	r0, r0
 403 0028 20EAE070 		bic	r0, r0, r0, asr #31
 404              	.LBB125:
 405              	.LBB123:
 406              		.loc 4 26 25 view .LVU125
 407 002c 10FB03F0 		smulbb	r0, r0, r3
 408              		.loc 4 26 47 view .LVU126
 409 0030 0012     		asrs	r0, r0, #8
 410 0032 8DF80600 		strb	r0, [sp, #6]
 411              	.LBE123:
 412              	.LBE125:
 413              		.loc 5 8 12 view .LVU127
 414 0036 019B     		ldr	r3, [sp, #4]
 415              		.loc 5 8 12 view .LVU128
 416 0038 0020     		movs	r0, #0
 417 003a DAB2     		uxtb	r2, r3
 418              	.LVL37:
 419              		.loc 5 8 12 view .LVU129
 420 003c 62F30700 		bfi	r0, r2, #0, #8
 421 0040 C3F30722 		ubfx	r2, r3, #8, #8
 422 0044 62F30F20 		bfi	r0, r2, #8, #8
 423 0048 C3F30743 		ubfx	r3, r3, #16, #8
 424 004c 63F31740 		bfi	r0, r3, #16, #8
   9:quantum/rgb_matrix/animations/colorband_val_anim.h **** }
 425              		.loc 5 9 1 view .LVU130
 426 0050 04B0     		add	sp, sp, #16
 427              		.cfi_def_cfa_offset 0
 428              		@ sp needed
 429 0052 7047     		bx	lr
 430              	.L27:
 431              		.align	2
 432              	.L26:
 433 0054 00000000 		.word	g_led_config
 434              		.cfi_endproc
 435              	.LFE375:
 437              		.section	.text.CYCLE_ALL_math,"ax",%progbits
 438              		.align	1
 439              		.syntax unified
 440              		.thumb
 441              		.thumb_func
 442              		.fpu fpv4-sp-d16
 444              	CYCLE_ALL_math:
 445              	.LVL38:
 446              	.LFB385:
 447              		.file 6 "quantum/rgb_matrix/animations/cycle_all_anim.h"
   1:quantum/rgb_matrix/animations/cycle_all_anim.h **** #ifndef DISABLE_RGB_MATRIX_CYCLE_ALL
   2:quantum/rgb_matrix/animations/cycle_all_anim.h **** RGB_MATRIX_EFFECT(CYCLE_ALL)
   3:quantum/rgb_matrix/animations/cycle_all_anim.h **** #    ifdef RGB_MATRIX_CUSTOM_EFFECT_IMPLS
   4:quantum/rgb_matrix/animations/cycle_all_anim.h **** 
   5:quantum/rgb_matrix/animations/cycle_all_anim.h **** static HSV CYCLE_ALL_math(HSV hsv, uint8_t i, uint8_t time) {
 448              		.loc 6 5 61 is_stmt 1 view -0
 449              		.cfi_startproc
 450              		@ args = 0, pretend = 0, frame = 16
 451              		@ frame_needed = 0, uses_anonymous_args = 0
 452              		@ link register save eliminated.
 453              		.loc 6 5 61 is_stmt 0 view .LVU132
 454 0000 84B0     		sub	sp, sp, #16
 455              		.cfi_def_cfa_offset 16
 456              	.LVL39:
   6:quantum/rgb_matrix/animations/cycle_all_anim.h ****     hsv.h = time;
 457              		.loc 6 6 5 is_stmt 1 view .LVU133
   7:quantum/rgb_matrix/animations/cycle_all_anim.h ****     return hsv;
 458              		.loc 6 7 5 view .LVU134
   5:quantum/rgb_matrix/animations/cycle_all_anim.h ****     hsv.h = time;
 459              		.loc 6 5 61 is_stmt 0 view .LVU135
 460 0002 0190     		str	r0, [sp, #4]
 461              		.loc 6 7 12 view .LVU136
 462 0004 8DF80420 		strb	r2, [sp, #4]
 463 0008 019B     		ldr	r3, [sp, #4]
 464 000a 0020     		movs	r0, #0
 465 000c DAB2     		uxtb	r2, r3
 466              	.LVL40:
 467              		.loc 6 7 12 view .LVU137
 468 000e 62F30700 		bfi	r0, r2, #0, #8
 469 0012 C3F30722 		ubfx	r2, r3, #8, #8
 470 0016 62F30F20 		bfi	r0, r2, #8, #8
 471 001a C3F30743 		ubfx	r3, r3, #16, #8
 472 001e 63F31740 		bfi	r0, r3, #16, #8
   8:quantum/rgb_matrix/animations/cycle_all_anim.h **** }
 473              		.loc 6 8 1 view .LVU138
 474 0022 04B0     		add	sp, sp, #16
 475              		.cfi_def_cfa_offset 0
 476              	.LVL41:
 477              		.loc 6 8 1 view .LVU139
 478              		@ sp needed
 479 0024 7047     		bx	lr
 480              		.cfi_endproc
 481              	.LFE385:
 483              		.section	.text.CYCLE_LEFT_RIGHT_math,"ax",%progbits
 484              		.align	1
 485              		.syntax unified
 486              		.thumb
 487              		.thumb_func
 488              		.fpu fpv4-sp-d16
 490              	CYCLE_LEFT_RIGHT_math:
 491              	.LVL42:
 492              	.LFB387:
 493              		.file 7 "quantum/rgb_matrix/animations/cycle_left_right_anim.h"
   1:quantum/rgb_matrix/animations/cycle_left_right_anim.h **** #ifndef DISABLE_RGB_MATRIX_CYCLE_LEFT_RIGHT
   2:quantum/rgb_matrix/animations/cycle_left_right_anim.h **** RGB_MATRIX_EFFECT(CYCLE_LEFT_RIGHT)
   3:quantum/rgb_matrix/animations/cycle_left_right_anim.h **** #    ifdef RGB_MATRIX_CUSTOM_EFFECT_IMPLS
   4:quantum/rgb_matrix/animations/cycle_left_right_anim.h **** 
   5:quantum/rgb_matrix/animations/cycle_left_right_anim.h **** static HSV CYCLE_LEFT_RIGHT_math(HSV hsv, uint8_t i, uint8_t time) {
 494              		.loc 7 5 68 is_stmt 1 view -0
 495              		.cfi_startproc
 496              		@ args = 0, pretend = 0, frame = 16
 497              		@ frame_needed = 0, uses_anonymous_args = 0
 498              		@ link register save eliminated.
 499              		.loc 7 5 68 is_stmt 0 view .LVU141
 500 0000 84B0     		sub	sp, sp, #16
 501              		.cfi_def_cfa_offset 16
 502              	.LVL43:
   6:quantum/rgb_matrix/animations/cycle_left_right_anim.h ****     hsv.h = g_led_config.point[i].x - time;
 503              		.loc 7 6 5 is_stmt 1 view .LVU142
   7:quantum/rgb_matrix/animations/cycle_left_right_anim.h ****     return hsv;
 504              		.loc 7 7 5 view .LVU143
   6:quantum/rgb_matrix/animations/cycle_left_right_anim.h ****     hsv.h = g_led_config.point[i].x - time;
 505              		.loc 7 6 34 is_stmt 0 view .LVU144
 506 0002 2C31     		adds	r1, r1, #44
 507              	.LVL44:
   6:quantum/rgb_matrix/animations/cycle_left_right_anim.h ****     hsv.h = g_led_config.point[i].x - time;
 508              		.loc 7 6 37 view .LVU145
 509 0004 0A4B     		ldr	r3, .L30
   5:quantum/rgb_matrix/animations/cycle_left_right_anim.h ****     hsv.h = g_led_config.point[i].x - time;
 510              		.loc 7 5 68 view .LVU146
 511 0006 0190     		str	r0, [sp, #4]
   6:quantum/rgb_matrix/animations/cycle_left_right_anim.h ****     hsv.h = g_led_config.point[i].x - time;
 512              		.loc 7 6 37 view .LVU147
 513 0008 13F81130 		ldrb	r3, [r3, r1, lsl #1]	@ zero_extendqisi2
 514 000c 9A1A     		subs	r2, r3, r2
 515              	.LVL45:
 516              		.loc 7 7 12 view .LVU148
 517 000e 8DF80420 		strb	r2, [sp, #4]
 518 0012 019B     		ldr	r3, [sp, #4]
 519 0014 0020     		movs	r0, #0
 520 0016 DAB2     		uxtb	r2, r3
 521 0018 62F30700 		bfi	r0, r2, #0, #8
 522 001c C3F30722 		ubfx	r2, r3, #8, #8
 523 0020 62F30F20 		bfi	r0, r2, #8, #8
 524 0024 C3F30743 		ubfx	r3, r3, #16, #8
 525 0028 63F31740 		bfi	r0, r3, #16, #8
   8:quantum/rgb_matrix/animations/cycle_left_right_anim.h **** }
 526              		.loc 7 8 1 view .LVU149
 527 002c 04B0     		add	sp, sp, #16
 528              		.cfi_def_cfa_offset 0
 529              		@ sp needed
 530 002e 7047     		bx	lr
 531              	.L31:
 532              		.align	2
 533              	.L30:
 534 0030 00000000 		.word	g_led_config
 535              		.cfi_endproc
 536              	.LFE387:
 538              		.section	.text.CYCLE_UP_DOWN_math,"ax",%progbits
 539              		.align	1
 540              		.syntax unified
 541              		.thumb
 542              		.thumb_func
 543              		.fpu fpv4-sp-d16
 545              	CYCLE_UP_DOWN_math:
 546              	.LVL46:
 547              	.LFB389:
 548              		.file 8 "quantum/rgb_matrix/animations/cycle_up_down_anim.h"
   1:quantum/rgb_matrix/animations/cycle_up_down_anim.h **** #ifndef DISABLE_RGB_MATRIX_CYCLE_UP_DOWN
   2:quantum/rgb_matrix/animations/cycle_up_down_anim.h **** RGB_MATRIX_EFFECT(CYCLE_UP_DOWN)
   3:quantum/rgb_matrix/animations/cycle_up_down_anim.h **** #    ifdef RGB_MATRIX_CUSTOM_EFFECT_IMPLS
   4:quantum/rgb_matrix/animations/cycle_up_down_anim.h **** 
   5:quantum/rgb_matrix/animations/cycle_up_down_anim.h **** static HSV CYCLE_UP_DOWN_math(HSV hsv, uint8_t i, uint8_t time) {
 549              		.loc 8 5 65 is_stmt 1 view -0
 550              		.cfi_startproc
 551              		@ args = 0, pretend = 0, frame = 16
 552              		@ frame_needed = 0, uses_anonymous_args = 0
 553              		@ link register save eliminated.
 554              		.loc 8 5 65 is_stmt 0 view .LVU151
 555 0000 84B0     		sub	sp, sp, #16
 556              		.cfi_def_cfa_offset 16
 557              	.LVL47:
   6:quantum/rgb_matrix/animations/cycle_up_down_anim.h ****     hsv.h = g_led_config.point[i].y - time;
 558              		.loc 8 6 5 is_stmt 1 view .LVU152
   7:quantum/rgb_matrix/animations/cycle_up_down_anim.h ****     return hsv;
 559              		.loc 8 7 5 view .LVU153
   5:quantum/rgb_matrix/animations/cycle_up_down_anim.h ****     hsv.h = g_led_config.point[i].y - time;
 560              		.loc 8 5 65 is_stmt 0 view .LVU154
 561 0002 0190     		str	r0, [sp, #4]
   6:quantum/rgb_matrix/animations/cycle_up_down_anim.h ****     hsv.h = g_led_config.point[i].y - time;
 562              		.loc 8 6 34 view .LVU155
 563 0004 0B48     		ldr	r0, .L33
 564 0006 00EB4101 		add	r1, r0, r1, lsl #1
 565              	.LVL48:
 566              		.loc 8 7 12 view .LVU156
 567 000a 0020     		movs	r0, #0
   6:quantum/rgb_matrix/animations/cycle_up_down_anim.h ****     hsv.h = g_led_config.point[i].y - time;
 568              		.loc 8 6 37 view .LVU157
 569 000c 91F85930 		ldrb	r3, [r1, #89]	@ zero_extendqisi2
 570 0010 9A1A     		subs	r2, r3, r2
 571              	.LVL49:
 572              		.loc 8 7 12 view .LVU158
 573 0012 8DF80420 		strb	r2, [sp, #4]
 574 0016 019B     		ldr	r3, [sp, #4]
 575 0018 DAB2     		uxtb	r2, r3
 576 001a 62F30700 		bfi	r0, r2, #0, #8
 577 001e C3F30722 		ubfx	r2, r3, #8, #8
 578 0022 62F30F20 		bfi	r0, r2, #8, #8
 579 0026 C3F30743 		ubfx	r3, r3, #16, #8
 580 002a 63F31740 		bfi	r0, r3, #16, #8
   8:quantum/rgb_matrix/animations/cycle_up_down_anim.h **** }
 581              		.loc 8 8 1 view .LVU159
 582 002e 04B0     		add	sp, sp, #16
 583              		.cfi_def_cfa_offset 0
 584              		@ sp needed
 585 0030 7047     		bx	lr
 586              	.L34:
 587 0032 00BF     		.align	2
 588              	.L33:
 589 0034 00000000 		.word	g_led_config
 590              		.cfi_endproc
 591              	.LFE389:
 593              		.section	.text.RAINBOW_MOVING_CHEVRON_math,"ax",%progbits
 594              		.align	1
 595              		.syntax unified
 596              		.thumb
 597              		.thumb_func
 598              		.fpu fpv4-sp-d16
 600              	RAINBOW_MOVING_CHEVRON_math:
 601              	.LVL50:
 602              	.LFB391:
 603              		.file 9 "quantum/rgb_matrix/animations/rainbow_moving_chevron_anim.h"
   1:quantum/rgb_matrix/animations/rainbow_moving_chevron_anim.h **** #ifndef DISABLE_RGB_MATRIX_RAINBOW_MOVING_CHEVRON
   2:quantum/rgb_matrix/animations/rainbow_moving_chevron_anim.h **** RGB_MATRIX_EFFECT(RAINBOW_MOVING_CHEVRON)
   3:quantum/rgb_matrix/animations/rainbow_moving_chevron_anim.h **** #    ifdef RGB_MATRIX_CUSTOM_EFFECT_IMPLS
   4:quantum/rgb_matrix/animations/rainbow_moving_chevron_anim.h **** 
   5:quantum/rgb_matrix/animations/rainbow_moving_chevron_anim.h **** static HSV RAINBOW_MOVING_CHEVRON_math(HSV hsv, uint8_t i, uint8_t time) {
 604              		.loc 9 5 74 is_stmt 1 view -0
 605              		.cfi_startproc
 606              		@ args = 0, pretend = 0, frame = 16
 607              		@ frame_needed = 0, uses_anonymous_args = 0
 608              		.loc 9 5 74 is_stmt 0 view .LVU161
 609 0000 30B5     		push	{r4, r5, lr}
 610              		.cfi_def_cfa_offset 12
 611              		.cfi_offset 4, -12
 612              		.cfi_offset 5, -8
 613              		.cfi_offset 14, -4
   6:quantum/rgb_matrix/animations/rainbow_moving_chevron_anim.h ****     hsv.h += abs8(g_led_config.point[i].y - k_rgb_matrix_center.y) + (g_led_config.point[i].x - tim
 614              		.loc 9 6 40 view .LVU162
 615 0002 134D     		ldr	r5, .L37
   5:quantum/rgb_matrix/animations/rainbow_moving_chevron_anim.h ****     hsv.h += abs8(g_led_config.point[i].y - k_rgb_matrix_center.y) + (g_led_config.point[i].x - tim
 616              		.loc 9 5 74 view .LVU163
 617 0004 85B0     		sub	sp, sp, #20
 618              		.cfi_def_cfa_offset 32
 619              		.loc 9 6 40 view .LVU164
 620 0006 2C31     		adds	r1, r1, #44
 621              	.LVL51:
 622              		.loc 9 6 40 view .LVU165
 623 0008 05EB4103 		add	r3, r5, r1, lsl #1
   5:quantum/rgb_matrix/animations/rainbow_moving_chevron_anim.h ****     hsv.h += abs8(g_led_config.point[i].y - k_rgb_matrix_center.y) + (g_led_config.point[i].x - tim
 624              		.loc 9 5 74 view .LVU166
 625 000c 0190     		str	r0, [sp, #4]
 626              		.loc 9 6 40 view .LVU167
 627 000e 5B78     		ldrb	r3, [r3, #1]	@ zero_extendqisi2
 628              		.loc 9 6 43 view .LVU168
 629 0010 A3F12004 		sub	r4, r3, #32
 630              		.loc 9 6 14 view .LVU169
 631 0014 64B2     		sxtb	r4, r4
 632              	.LBB126:
 633              	.LBB127:
 407:./lib/lib8tion/math8.h ****     return i;
 634              		.loc 1 407 7 view .LVU170
 635 0016 002C     		cmp	r4, #0
 407:./lib/lib8tion/math8.h ****     return i;
 636              		.loc 1 407 18 view .LVU171
 637 0018 BCBF     		itt	lt
 638 001a C3F12003 		rsblt	r3, r3, #32
 639 001e 5CB2     		sxtblt	r4, r3
 640              	.LBE127:
 641              	.LBE126:
 642              		.loc 9 6 92 view .LVU172
 643 0020 15F81130 		ldrb	r3, [r5, r1, lsl #1]	@ zero_extendqisi2
 644              		.loc 9 6 95 view .LVU173
 645 0024 9A1A     		subs	r2, r3, r2
 646              	.LVL52:
 647              		.loc 9 6 68 view .LVU174
 648 0026 2244     		add	r2, r2, r4
 649 0028 C0B2     		uxtb	r0, r0
 650              	.LVL53:
 651              		.loc 9 6 5 is_stmt 1 view .LVU175
 652              	.LBB129:
 653              	.LBI126:
 404:./lib/lib8tion/math8.h **** {
 654              		.loc 1 404 33 view .LVU176
 655              	.LBB128:
 407:./lib/lib8tion/math8.h ****     return i;
 656              		.loc 1 407 5 view .LVU177
 407:./lib/lib8tion/math8.h ****     return i;
 657              		.loc 1 407 16 view .LVU178
 408:./lib/lib8tion/math8.h **** #elif ABS8_AVRASM == 1
 658              		.loc 1 408 5 view .LVU179
 408:./lib/lib8tion/math8.h **** #elif ABS8_AVRASM == 1
 659              		.loc 1 408 5 is_stmt 0 view .LVU180
 660              	.LBE128:
 661              	.LBE129:
   7:quantum/rgb_matrix/animations/rainbow_moving_chevron_anim.h ****     return hsv;
 662              		.loc 9 7 5 is_stmt 1 view .LVU181
   6:quantum/rgb_matrix/animations/rainbow_moving_chevron_anim.h ****     return hsv;
 663              		.loc 9 6 11 is_stmt 0 view .LVU182
 664 002a 1044     		add	r0, r0, r2
 665              		.loc 9 7 12 view .LVU183
 666 002c 8DF80400 		strb	r0, [sp, #4]
 667 0030 019B     		ldr	r3, [sp, #4]
 668 0032 0020     		movs	r0, #0
 669 0034 DAB2     		uxtb	r2, r3
 670 0036 62F30700 		bfi	r0, r2, #0, #8
 671 003a C3F30722 		ubfx	r2, r3, #8, #8
 672 003e 62F30F20 		bfi	r0, r2, #8, #8
 673 0042 C3F30743 		ubfx	r3, r3, #16, #8
 674 0046 63F31740 		bfi	r0, r3, #16, #8
   8:quantum/rgb_matrix/animations/rainbow_moving_chevron_anim.h **** }
 675              		.loc 9 8 1 view .LVU184
 676 004a 05B0     		add	sp, sp, #20
 677              		.cfi_def_cfa_offset 12
 678              		@ sp needed
 679 004c 30BD     		pop	{r4, r5, pc}
 680              	.L38:
 681 004e 00BF     		.align	2
 682              	.L37:
 683 0050 00000000 		.word	g_led_config
 684              		.cfi_endproc
 685              	.LFE391:
 687              		.section	.text.CYCLE_OUT_IN_math,"ax",%progbits
 688              		.align	1
 689              		.syntax unified
 690              		.thumb
 691              		.thumb_func
 692              		.fpu fpv4-sp-d16
 694              	CYCLE_OUT_IN_math:
 695              	.LVL54:
 696              	.LFB393:
 697              		.file 10 "quantum/rgb_matrix/animations/cycle_out_in_anim.h"
   1:quantum/rgb_matrix/animations/cycle_out_in_anim.h **** #ifndef DISABLE_RGB_MATRIX_CYCLE_OUT_IN
   2:quantum/rgb_matrix/animations/cycle_out_in_anim.h **** RGB_MATRIX_EFFECT(CYCLE_OUT_IN)
   3:quantum/rgb_matrix/animations/cycle_out_in_anim.h **** #    ifdef RGB_MATRIX_CUSTOM_EFFECT_IMPLS
   4:quantum/rgb_matrix/animations/cycle_out_in_anim.h **** 
   5:quantum/rgb_matrix/animations/cycle_out_in_anim.h **** static HSV CYCLE_OUT_IN_math(HSV hsv, int16_t dx, int16_t dy, uint8_t dist, uint8_t time) {
 698              		.loc 10 5 91 is_stmt 1 view -0
 699              		.cfi_startproc
 700              		@ args = 4, pretend = 0, frame = 16
 701              		@ frame_needed = 0, uses_anonymous_args = 0
 702              		@ link register save eliminated.
 703              		.loc 10 5 91 is_stmt 0 view .LVU186
 704 0000 84B0     		sub	sp, sp, #16
 705              		.cfi_def_cfa_offset 16
 706              	.LVL55:
   6:quantum/rgb_matrix/animations/cycle_out_in_anim.h ****     hsv.h = 3 * dist / 2 + time;
 707              		.loc 10 6 5 is_stmt 1 view .LVU187
   7:quantum/rgb_matrix/animations/cycle_out_in_anim.h ****     return hsv;
 708              		.loc 10 7 5 view .LVU188
   6:quantum/rgb_matrix/animations/cycle_out_in_anim.h ****     hsv.h = 3 * dist / 2 + time;
 709              		.loc 10 6 15 is_stmt 0 view .LVU189
 710 0002 03EB4303 		add	r3, r3, r3, lsl #1
 711              	.LVL56:
   6:quantum/rgb_matrix/animations/cycle_out_in_anim.h ****     hsv.h = 3 * dist / 2 + time;
 712              		.loc 10 6 26 view .LVU190
 713 0006 9DF81020 		ldrb	r2, [sp, #16]	@ zero_extendqisi2
 714              	.LVL57:
   5:quantum/rgb_matrix/animations/cycle_out_in_anim.h ****     hsv.h = 3 * dist / 2 + time;
 715              		.loc 10 5 91 view .LVU191
 716 000a 0190     		str	r0, [sp, #4]
   6:quantum/rgb_matrix/animations/cycle_out_in_anim.h ****     hsv.h = 3 * dist / 2 + time;
 717              		.loc 10 6 26 view .LVU192
 718 000c 02EB5303 		add	r3, r2, r3, lsr #1
 719              		.loc 10 7 12 view .LVU193
 720 0010 8DF80430 		strb	r3, [sp, #4]
 721 0014 019B     		ldr	r3, [sp, #4]
 722 0016 0020     		movs	r0, #0
 723 0018 DAB2     		uxtb	r2, r3
 724 001a 62F30700 		bfi	r0, r2, #0, #8
 725 001e C3F30722 		ubfx	r2, r3, #8, #8
 726 0022 62F30F20 		bfi	r0, r2, #8, #8
 727 0026 C3F30743 		ubfx	r3, r3, #16, #8
 728 002a 63F31740 		bfi	r0, r3, #16, #8
   8:quantum/rgb_matrix/animations/cycle_out_in_anim.h **** }
 729              		.loc 10 8 1 view .LVU194
 730 002e 04B0     		add	sp, sp, #16
 731              		.cfi_def_cfa_offset 0
 732              	.LVL58:
 733              		.loc 10 8 1 view .LVU195
 734              		@ sp needed
 735 0030 7047     		bx	lr
 736              		.cfi_endproc
 737              	.LFE393:
 739              		.section	.text.CYCLE_OUT_IN_DUAL_math,"ax",%progbits
 740              		.align	1
 741              		.syntax unified
 742              		.thumb
 743              		.thumb_func
 744              		.fpu fpv4-sp-d16
 746              	CYCLE_OUT_IN_DUAL_math:
 747              	.LVL59:
 748              	.LFB395:
 749              		.file 11 "quantum/rgb_matrix/animations/cycle_out_in_dual_anim.h"
   1:quantum/rgb_matrix/animations/cycle_out_in_dual_anim.h **** #ifndef DISABLE_RGB_MATRIX_CYCLE_OUT_IN_DUAL
   2:quantum/rgb_matrix/animations/cycle_out_in_dual_anim.h **** RGB_MATRIX_EFFECT(CYCLE_OUT_IN_DUAL)
   3:quantum/rgb_matrix/animations/cycle_out_in_dual_anim.h **** #    ifdef RGB_MATRIX_CUSTOM_EFFECT_IMPLS
   4:quantum/rgb_matrix/animations/cycle_out_in_dual_anim.h **** 
   5:quantum/rgb_matrix/animations/cycle_out_in_dual_anim.h **** static HSV CYCLE_OUT_IN_DUAL_math(HSV hsv, int16_t dx, int16_t dy, uint8_t time) {
 750              		.loc 11 5 82 is_stmt 1 view -0
 751              		.cfi_startproc
 752              		@ args = 0, pretend = 0, frame = 16
 753              		@ frame_needed = 0, uses_anonymous_args = 0
 754              		.loc 11 5 82 is_stmt 0 view .LVU197
 755 0000 1FB5     		push	{r0, r1, r2, r3, r4, lr}
 756              		.cfi_def_cfa_offset 24
 757              		.cfi_offset 4, -8
 758              		.cfi_offset 14, -4
 759              	.LVL60:
   6:quantum/rgb_matrix/animations/cycle_out_in_dual_anim.h ****     dx           = (k_rgb_matrix_center.x / 2) - abs8(dx);
 760              		.loc 11 6 5 is_stmt 1 view .LVU198
   5:quantum/rgb_matrix/animations/cycle_out_in_dual_anim.h ****     dx           = (k_rgb_matrix_center.x / 2) - abs8(dx);
 761              		.loc 11 5 82 is_stmt 0 view .LVU199
 762 0002 0190     		str	r0, [sp, #4]
 763              	.LVL61:
 764              		.loc 11 6 50 view .LVU200
 765 0004 48B2     		sxtb	r0, r1
 766              	.LVL62:
 767              	.LBB130:
 768              	.LBI130:
 404:./lib/lib8tion/math8.h **** {
 769              		.loc 1 404 33 is_stmt 1 view .LVU201
 770              	.LBB131:
 407:./lib/lib8tion/math8.h ****     return i;
 771              		.loc 1 407 5 view .LVU202
 407:./lib/lib8tion/math8.h ****     return i;
 772              		.loc 1 407 7 is_stmt 0 view .LVU203
 773 0006 0028     		cmp	r0, #0
 407:./lib/lib8tion/math8.h ****     return i;
 774              		.loc 1 407 16 is_stmt 1 view .LVU204
 407:./lib/lib8tion/math8.h ****     return i;
 775              		.loc 1 407 18 is_stmt 0 view .LVU205
 776 0008 BCBF     		itt	lt
 777 000a 4942     		rsblt	r1, r1, #0
 778              	.LVL63:
 407:./lib/lib8tion/math8.h ****     return i;
 779              		.loc 1 407 18 view .LVU206
 780 000c 48B2     		sxtblt	r0, r1
 781              	.LVL64:
 408:./lib/lib8tion/math8.h **** #elif ABS8_AVRASM == 1
 782              		.loc 1 408 5 is_stmt 1 view .LVU207
 408:./lib/lib8tion/math8.h **** #elif ABS8_AVRASM == 1
 783              		.loc 1 408 5 is_stmt 0 view .LVU208
 784              	.LBE131:
 785              	.LBE130:
   7:quantum/rgb_matrix/animations/cycle_out_in_dual_anim.h ****     uint8_t dist = sqrt16(dx * dx + dy * dy);
 786              		.loc 11 7 5 is_stmt 1 view .LVU209
 787              		.loc 11 7 40 is_stmt 0 view .LVU210
 788 000e 5243     		muls	r2, r2, r2
 789              	.LVL65:
   6:quantum/rgb_matrix/animations/cycle_out_in_dual_anim.h ****     uint8_t dist = sqrt16(dx * dx + dy * dy);
 790              		.loc 11 6 18 view .LVU211
 791 0010 C0F13800 		rsb	r0, r0, #56
 792              	.LVL66:
 793              		.loc 11 7 20 view .LVU212
 794 0014 10FB0020 		smlabb	r0, r0, r0, r2
 795 0018 80B2     		uxth	r0, r0
   5:quantum/rgb_matrix/animations/cycle_out_in_dual_anim.h ****     dx           = (k_rgb_matrix_center.x / 2) - abs8(dx);
 796              		.loc 11 5 82 view .LVU213
 797 001a 1C46     		mov	r4, r3
 798              		.loc 11 7 20 view .LVU214
 799 001c FFF7FEFF 		bl	sqrt16
 800              	.LVL67:
   8:quantum/rgb_matrix/animations/cycle_out_in_dual_anim.h ****     hsv.h        = 3 * dist + time;
 801              		.loc 11 8 5 is_stmt 1 view .LVU215
   9:quantum/rgb_matrix/animations/cycle_out_in_dual_anim.h ****     return hsv;
 802              		.loc 11 9 5 view .LVU216
   8:quantum/rgb_matrix/animations/cycle_out_in_dual_anim.h ****     hsv.h        = 3 * dist + time;
 803              		.loc 11 8 29 is_stmt 0 view .LVU217
 804 0020 00EB4000 		add	r0, r0, r0, lsl #1
 805              	.LVL68:
   8:quantum/rgb_matrix/animations/cycle_out_in_dual_anim.h ****     hsv.h        = 3 * dist + time;
 806              		.loc 11 8 29 view .LVU218
 807 0024 0444     		add	r4, r4, r0
 808              		.loc 11 9 12 view .LVU219
 809 0026 8DF80440 		strb	r4, [sp, #4]
 810 002a 019B     		ldr	r3, [sp, #4]
 811 002c 0020     		movs	r0, #0
 812 002e DAB2     		uxtb	r2, r3
 813 0030 62F30700 		bfi	r0, r2, #0, #8
 814 0034 C3F30722 		ubfx	r2, r3, #8, #8
 815 0038 62F30F20 		bfi	r0, r2, #8, #8
 816 003c C3F30743 		ubfx	r3, r3, #16, #8
 817 0040 63F31740 		bfi	r0, r3, #16, #8
  10:quantum/rgb_matrix/animations/cycle_out_in_dual_anim.h **** }
 818              		.loc 11 10 1 view .LVU220
 819 0044 04B0     		add	sp, sp, #16
 820              		.cfi_def_cfa_offset 8
 821              		@ sp needed
 822 0046 10BD     		pop	{r4, pc}
 823              		.cfi_endproc
 824              	.LFE395:
 826              		.section	.text.DUAL_BEACON_math,"ax",%progbits
 827              		.align	1
 828              		.syntax unified
 829              		.thumb
 830              		.thumb_func
 831              		.fpu fpv4-sp-d16
 833              	DUAL_BEACON_math:
 834              	.LVL69:
 835              	.LFB401:
 836              		.file 12 "quantum/rgb_matrix/animations/dual_beacon_anim.h"
   1:quantum/rgb_matrix/animations/dual_beacon_anim.h **** #ifndef DISABLE_RGB_MATRIX_DUAL_BEACON
   2:quantum/rgb_matrix/animations/dual_beacon_anim.h **** RGB_MATRIX_EFFECT(DUAL_BEACON)
   3:quantum/rgb_matrix/animations/dual_beacon_anim.h **** #    ifdef RGB_MATRIX_CUSTOM_EFFECT_IMPLS
   4:quantum/rgb_matrix/animations/dual_beacon_anim.h **** 
   5:quantum/rgb_matrix/animations/dual_beacon_anim.h **** static HSV DUAL_BEACON_math(HSV hsv, int8_t sin, int8_t cos, uint8_t i, uint8_t time) {
 837              		.loc 12 5 87 is_stmt 1 view -0
 838              		.cfi_startproc
 839              		@ args = 4, pretend = 0, frame = 16
 840              		@ frame_needed = 0, uses_anonymous_args = 0
 841              		.loc 12 5 87 is_stmt 0 view .LVU222
 842 0000 1FB5     		push	{r0, r1, r2, r3, r4, lr}
 843              		.cfi_def_cfa_offset 24
 844              		.cfi_offset 4, -8
 845              		.cfi_offset 14, -4
 846              	.LVL70:
   6:quantum/rgb_matrix/animations/dual_beacon_anim.h ****     hsv.h += ((g_led_config.point[i].y - k_rgb_matrix_center.y) * cos + (g_led_config.point[i].x - 
 847              		.loc 12 6 5 is_stmt 1 view .LVU223
   7:quantum/rgb_matrix/animations/dual_beacon_anim.h ****     return hsv;
 848              		.loc 12 7 5 view .LVU224
   6:quantum/rgb_matrix/animations/dual_beacon_anim.h ****     hsv.h += ((g_led_config.point[i].y - k_rgb_matrix_center.y) * cos + (g_led_config.point[i].x - 
 849              		.loc 12 6 37 is_stmt 0 view .LVU225
 850 0002 124C     		ldr	r4, .L44
   5:quantum/rgb_matrix/animations/dual_beacon_anim.h ****     hsv.h += ((g_led_config.point[i].y - k_rgb_matrix_center.y) * cos + (g_led_config.point[i].x - 
 851              		.loc 12 5 87 view .LVU226
 852 0004 0190     		str	r0, [sp, #4]
 853              	.LVL71:
   6:quantum/rgb_matrix/animations/dual_beacon_anim.h ****     hsv.h += ((g_led_config.point[i].y - k_rgb_matrix_center.y) * cos + (g_led_config.point[i].x - 
 854              		.loc 12 6 37 view .LVU227
 855 0006 2C33     		adds	r3, r3, #44
 856              	.LVL72:
   6:quantum/rgb_matrix/animations/dual_beacon_anim.h ****     hsv.h += ((g_led_config.point[i].y - k_rgb_matrix_center.y) * cos + (g_led_config.point[i].x - 
 857              		.loc 12 6 37 view .LVU228
 858 0008 04EB4300 		add	r0, r4, r3, lsl #1
   6:quantum/rgb_matrix/animations/dual_beacon_anim.h ****     hsv.h += ((g_led_config.point[i].y - k_rgb_matrix_center.y) * cos + (g_led_config.point[i].x - 
 859              		.loc 12 6 95 view .LVU229
 860 000c 14F81330 		ldrb	r3, [r4, r3, lsl #1]	@ zero_extendqisi2
   6:quantum/rgb_matrix/animations/dual_beacon_anim.h ****     hsv.h += ((g_led_config.point[i].y - k_rgb_matrix_center.y) * cos + (g_led_config.point[i].x - 
 861              		.loc 12 6 37 view .LVU230
 862 0010 4078     		ldrb	r0, [r0, #1]	@ zero_extendqisi2
   6:quantum/rgb_matrix/animations/dual_beacon_anim.h ****     hsv.h += ((g_led_config.point[i].y - k_rgb_matrix_center.y) * cos + (g_led_config.point[i].x - 
 863              		.loc 12 6 98 view .LVU231
 864 0012 703B     		subs	r3, r3, #112
   6:quantum/rgb_matrix/animations/dual_beacon_anim.h ****     hsv.h += ((g_led_config.point[i].y - k_rgb_matrix_center.y) * cos + (g_led_config.point[i].x - 
 865              		.loc 12 6 123 view .LVU232
 866 0014 5943     		muls	r1, r3, r1
 867              	.LVL73:
   6:quantum/rgb_matrix/animations/dual_beacon_anim.h ****     hsv.h += ((g_led_config.point[i].y - k_rgb_matrix_center.y) * cos + (g_led_config.point[i].x - 
 868              		.loc 12 6 40 view .LVU233
 869 0016 2038     		subs	r0, r0, #32
   6:quantum/rgb_matrix/animations/dual_beacon_anim.h ****     hsv.h += ((g_led_config.point[i].y - k_rgb_matrix_center.y) * cos + (g_led_config.point[i].x - 
 870              		.loc 12 6 71 view .LVU234
 871 0018 02FB0012 		mla	r2, r2, r0, r1
 872              	.LVL74:
   6:quantum/rgb_matrix/animations/dual_beacon_anim.h ****     hsv.h += ((g_led_config.point[i].y - k_rgb_matrix_center.y) * cos + (g_led_config.point[i].x - 
 873              		.loc 12 6 130 view .LVU235
 874 001c 002A     		cmp	r2, #0
   6:quantum/rgb_matrix/animations/dual_beacon_anim.h ****     hsv.h += ((g_led_config.point[i].y - k_rgb_matrix_center.y) * cos + (g_led_config.point[i].x - 
 875              		.loc 12 6 11 view .LVU236
 876 001e 9DF80410 		ldrb	r1, [sp, #4]	@ zero_extendqisi2
   6:quantum/rgb_matrix/animations/dual_beacon_anim.h ****     hsv.h += ((g_led_config.point[i].y - k_rgb_matrix_center.y) * cos + (g_led_config.point[i].x - 
 877              		.loc 12 6 130 view .LVU237
 878 0022 B8BF     		it	lt
 879 0024 7F32     		addlt	r2, r2, #127
   6:quantum/rgb_matrix/animations/dual_beacon_anim.h ****     hsv.h += ((g_led_config.point[i].y - k_rgb_matrix_center.y) * cos + (g_led_config.point[i].x - 
 880              		.loc 12 6 11 view .LVU238
 881 0026 01EBE212 		add	r2, r1, r2, asr #7
 882              		.loc 12 7 12 view .LVU239
 883 002a 8DF80420 		strb	r2, [sp, #4]
 884 002e 019B     		ldr	r3, [sp, #4]
 885 0030 0020     		movs	r0, #0
 886 0032 DAB2     		uxtb	r2, r3
 887 0034 62F30700 		bfi	r0, r2, #0, #8
 888 0038 C3F30722 		ubfx	r2, r3, #8, #8
 889 003c 62F30F20 		bfi	r0, r2, #8, #8
 890 0040 C3F30743 		ubfx	r3, r3, #16, #8
 891 0044 63F31740 		bfi	r0, r3, #16, #8
   8:quantum/rgb_matrix/animations/dual_beacon_anim.h **** }
 892              		.loc 12 8 1 view .LVU240
 893 0048 04B0     		add	sp, sp, #16
 894              		.cfi_def_cfa_offset 8
 895              		@ sp needed
 896 004a 10BD     		pop	{r4, pc}
 897              	.LVL75:
 898              	.L45:
 899              		.loc 12 8 1 view .LVU241
 900              		.align	2
 901              	.L44:
 902 004c 00000000 		.word	g_led_config
 903              		.cfi_endproc
 904              	.LFE401:
 906              		.section	.text.RAINBOW_BEACON_math,"ax",%progbits
 907              		.align	1
 908              		.syntax unified
 909              		.thumb
 910              		.thumb_func
 911              		.fpu fpv4-sp-d16
 913              	RAINBOW_BEACON_math:
 914              	.LVL76:
 915              	.LFB403:
 916              		.file 13 "quantum/rgb_matrix/animations/rainbow_beacon_anim.h"
   1:quantum/rgb_matrix/animations/rainbow_beacon_anim.h **** #ifndef DISABLE_RGB_MATRIX_RAINBOW_BEACON
   2:quantum/rgb_matrix/animations/rainbow_beacon_anim.h **** RGB_MATRIX_EFFECT(RAINBOW_BEACON)
   3:quantum/rgb_matrix/animations/rainbow_beacon_anim.h **** #    ifdef RGB_MATRIX_CUSTOM_EFFECT_IMPLS
   4:quantum/rgb_matrix/animations/rainbow_beacon_anim.h **** 
   5:quantum/rgb_matrix/animations/rainbow_beacon_anim.h **** static HSV RAINBOW_BEACON_math(HSV hsv, int8_t sin, int8_t cos, uint8_t i, uint8_t time) {
 917              		.loc 13 5 90 is_stmt 1 view -0
 918              		.cfi_startproc
 919              		@ args = 4, pretend = 0, frame = 16
 920              		@ frame_needed = 0, uses_anonymous_args = 0
 921              		.loc 13 5 90 is_stmt 0 view .LVU243
 922 0000 1FB5     		push	{r0, r1, r2, r3, r4, lr}
 923              		.cfi_def_cfa_offset 24
 924              		.cfi_offset 4, -8
 925              		.cfi_offset 14, -4
 926              	.LVL77:
   6:quantum/rgb_matrix/animations/rainbow_beacon_anim.h ****     hsv.h += ((g_led_config.point[i].y - k_rgb_matrix_center.y) * 2 * cos + (g_led_config.point[i].
 927              		.loc 13 6 5 is_stmt 1 view .LVU244
   7:quantum/rgb_matrix/animations/rainbow_beacon_anim.h ****     return hsv;
 928              		.loc 13 7 5 view .LVU245
   6:quantum/rgb_matrix/animations/rainbow_beacon_anim.h ****     hsv.h += ((g_led_config.point[i].y - k_rgb_matrix_center.y) * 2 * cos + (g_led_config.point[i].
 929              		.loc 13 6 37 is_stmt 0 view .LVU246
 930 0002 124C     		ldr	r4, .L48
   5:quantum/rgb_matrix/animations/rainbow_beacon_anim.h ****     hsv.h += ((g_led_config.point[i].y - k_rgb_matrix_center.y) * 2 * cos + (g_led_config.point[i].
 931              		.loc 13 5 90 view .LVU247
 932 0004 0190     		str	r0, [sp, #4]
 933              	.LVL78:
   6:quantum/rgb_matrix/animations/rainbow_beacon_anim.h ****     hsv.h += ((g_led_config.point[i].y - k_rgb_matrix_center.y) * 2 * cos + (g_led_config.point[i].
 934              		.loc 13 6 37 view .LVU248
 935 0006 2C33     		adds	r3, r3, #44
 936              	.LVL79:
   6:quantum/rgb_matrix/animations/rainbow_beacon_anim.h ****     hsv.h += ((g_led_config.point[i].y - k_rgb_matrix_center.y) * 2 * cos + (g_led_config.point[i].
 937              		.loc 13 6 37 view .LVU249
 938 0008 04EB4300 		add	r0, r4, r3, lsl #1
   6:quantum/rgb_matrix/animations/rainbow_beacon_anim.h ****     hsv.h += ((g_led_config.point[i].y - k_rgb_matrix_center.y) * 2 * cos + (g_led_config.point[i].
 939              		.loc 13 6 99 view .LVU250
 940 000c 14F81330 		ldrb	r3, [r4, r3, lsl #1]	@ zero_extendqisi2
   6:quantum/rgb_matrix/animations/rainbow_beacon_anim.h ****     hsv.h += ((g_led_config.point[i].y - k_rgb_matrix_center.y) * 2 * cos + (g_led_config.point[i].
 941              		.loc 13 6 37 view .LVU251
 942 0010 4078     		ldrb	r0, [r0, #1]	@ zero_extendqisi2
   6:quantum/rgb_matrix/animations/rainbow_beacon_anim.h ****     hsv.h += ((g_led_config.point[i].y - k_rgb_matrix_center.y) * 2 * cos + (g_led_config.point[i].
 943              		.loc 13 6 102 view .LVU252
 944 0012 703B     		subs	r3, r3, #112
   6:quantum/rgb_matrix/animations/rainbow_beacon_anim.h ****     hsv.h += ((g_led_config.point[i].y - k_rgb_matrix_center.y) * 2 * cos + (g_led_config.point[i].
 945              		.loc 13 6 131 view .LVU253
 946 0014 5943     		muls	r1, r3, r1
 947              	.LVL80:
   6:quantum/rgb_matrix/animations/rainbow_beacon_anim.h ****     hsv.h += ((g_led_config.point[i].y - k_rgb_matrix_center.y) * 2 * cos + (g_led_config.point[i].
 948              		.loc 13 6 40 view .LVU254
 949 0016 2038     		subs	r0, r0, #32
   6:quantum/rgb_matrix/animations/rainbow_beacon_anim.h ****     hsv.h += ((g_led_config.point[i].y - k_rgb_matrix_center.y) * 2 * cos + (g_led_config.point[i].
 950              		.loc 13 6 75 view .LVU255
 951 0018 02FB0012 		mla	r2, r2, r0, r1
 952              	.LVL81:
   6:quantum/rgb_matrix/animations/rainbow_beacon_anim.h ****     hsv.h += ((g_led_config.point[i].y - k_rgb_matrix_center.y) * 2 * cos + (g_led_config.point[i].
 953              		.loc 13 6 138 view .LVU256
 954 001c 002A     		cmp	r2, #0
   6:quantum/rgb_matrix/animations/rainbow_beacon_anim.h ****     hsv.h += ((g_led_config.point[i].y - k_rgb_matrix_center.y) * 2 * cos + (g_led_config.point[i].
 955              		.loc 13 6 11 view .LVU257
 956 001e 9DF80410 		ldrb	r1, [sp, #4]	@ zero_extendqisi2
   6:quantum/rgb_matrix/animations/rainbow_beacon_anim.h ****     hsv.h += ((g_led_config.point[i].y - k_rgb_matrix_center.y) * 2 * cos + (g_led_config.point[i].
 957              		.loc 13 6 138 view .LVU258
 958 0022 B8BF     		it	lt
 959 0024 3F32     		addlt	r2, r2, #63
   6:quantum/rgb_matrix/animations/rainbow_beacon_anim.h ****     hsv.h += ((g_led_config.point[i].y - k_rgb_matrix_center.y) * 2 * cos + (g_led_config.point[i].
 960              		.loc 13 6 11 view .LVU259
 961 0026 01EBA212 		add	r2, r1, r2, asr #6
 962              		.loc 13 7 12 view .LVU260
 963 002a 8DF80420 		strb	r2, [sp, #4]
 964 002e 019B     		ldr	r3, [sp, #4]
 965 0030 0020     		movs	r0, #0
 966 0032 DAB2     		uxtb	r2, r3
 967 0034 62F30700 		bfi	r0, r2, #0, #8
 968 0038 C3F30722 		ubfx	r2, r3, #8, #8
 969 003c 62F30F20 		bfi	r0, r2, #8, #8
 970 0040 C3F30743 		ubfx	r3, r3, #16, #8
 971 0044 63F31740 		bfi	r0, r3, #16, #8
   8:quantum/rgb_matrix/animations/rainbow_beacon_anim.h **** }
 972              		.loc 13 8 1 view .LVU261
 973 0048 04B0     		add	sp, sp, #16
 974              		.cfi_def_cfa_offset 8
 975              		@ sp needed
 976 004a 10BD     		pop	{r4, pc}
 977              	.LVL82:
 978              	.L49:
 979              		.loc 13 8 1 view .LVU262
 980              		.align	2
 981              	.L48:
 982 004c 00000000 		.word	g_led_config
 983              		.cfi_endproc
 984              	.LFE403:
 986              		.section	.text.RAINBOW_PINWHEELS_math,"ax",%progbits
 987              		.align	1
 988              		.syntax unified
 989              		.thumb
 990              		.thumb_func
 991              		.fpu fpv4-sp-d16
 993              	RAINBOW_PINWHEELS_math:
 994              	.LVL83:
 995              	.LFB405:
 996              		.file 14 "quantum/rgb_matrix/animations/rainbow_pinwheels_anim.h"
   1:quantum/rgb_matrix/animations/rainbow_pinwheels_anim.h **** #ifndef DISABLE_RGB_MATRIX_RAINBOW_PINWHEELS
   2:quantum/rgb_matrix/animations/rainbow_pinwheels_anim.h **** RGB_MATRIX_EFFECT(RAINBOW_PINWHEELS)
   3:quantum/rgb_matrix/animations/rainbow_pinwheels_anim.h **** #    ifdef RGB_MATRIX_CUSTOM_EFFECT_IMPLS
   4:quantum/rgb_matrix/animations/rainbow_pinwheels_anim.h **** 
   5:quantum/rgb_matrix/animations/rainbow_pinwheels_anim.h **** static HSV RAINBOW_PINWHEELS_math(HSV hsv, int8_t sin, int8_t cos, uint8_t i, uint8_t time) {
 997              		.loc 14 5 93 is_stmt 1 view -0
 998              		.cfi_startproc
 999              		@ args = 4, pretend = 0, frame = 16
 1000              		@ frame_needed = 0, uses_anonymous_args = 0
 1001              		.loc 14 5 93 is_stmt 0 view .LVU264
 1002 0000 30B5     		push	{r4, r5, lr}
 1003              		.cfi_def_cfa_offset 12
 1004              		.cfi_offset 4, -12
 1005              		.cfi_offset 5, -8
 1006              		.cfi_offset 14, -4
 1007 0002 85B0     		sub	sp, sp, #20
 1008              		.cfi_def_cfa_offset 32
   6:quantum/rgb_matrix/animations/rainbow_pinwheels_anim.h ****     hsv.h += ((g_led_config.point[i].y - k_rgb_matrix_center.y) * 3 * cos + (56 - abs8(g_led_config
 1009              		.loc 14 6 37 view .LVU265
 1010 0004 2C33     		adds	r3, r3, #44
 1011              	.LVL84:
 1012              		.loc 14 6 37 view .LVU266
 1013 0006 164D     		ldr	r5, .L53
   5:quantum/rgb_matrix/animations/rainbow_pinwheels_anim.h ****     hsv.h += ((g_led_config.point[i].y - k_rgb_matrix_center.y) * 3 * cos + (56 - abs8(g_led_config
 1014              		.loc 14 5 93 view .LVU267
 1015 0008 0190     		str	r0, [sp, #4]
 1016              		.loc 14 6 37 view .LVU268
 1017 000a 05EB4304 		add	r4, r5, r3, lsl #1
 1018              		.loc 14 6 109 view .LVU269
 1019 000e 15F81350 		ldrb	r5, [r5, r3, lsl #1]	@ zero_extendqisi2
 1020              		.loc 14 6 37 view .LVU270
 1021 0012 6478     		ldrb	r4, [r4, #1]	@ zero_extendqisi2
 1022              		.loc 14 6 112 view .LVU271
 1023 0014 A5F17003 		sub	r3, r5, #112
 1024              		.loc 14 6 83 view .LVU272
 1025 0018 5BB2     		sxtb	r3, r3
 1026              	.LBB132:
 1027              	.LBB133:
 407:./lib/lib8tion/math8.h ****     return i;
 1028              		.loc 1 407 7 view .LVU273
 1029 001a 002B     		cmp	r3, #0
 407:./lib/lib8tion/math8.h ****     return i;
 1030              		.loc 1 407 18 view .LVU274
 1031 001c BCBF     		itt	lt
 1032 001e C5F17003 		rsblt	r3, r5, #112
 1033 0022 5BB2     		sxtblt	r3, r3
 1034              	.LBE133:
 1035              	.LBE132:
 1036              		.loc 14 6 40 view .LVU275
 1037 0024 203C     		subs	r4, r4, #32
 1038              		.loc 14 6 69 view .LVU276
 1039 0026 5443     		muls	r4, r2, r4
 1040              		.loc 14 6 81 view .LVU277
 1041 0028 C3F13803 		rsb	r3, r3, #56
 1042              		.loc 14 6 75 view .LVU278
 1043 002c 01FB0342 		mla	r2, r1, r3, r4
 1044              	.LVL85:
 1045              		.loc 14 6 149 view .LVU279
 1046 0030 12EB4202 		adds	r2, r2, r2, lsl #1
 1047 0034 C0B2     		uxtb	r0, r0
 1048              	.LVL86:
 1049              		.loc 14 6 5 is_stmt 1 view .LVU280
 1050              	.LBB135:
 1051              	.LBI132:
 404:./lib/lib8tion/math8.h **** {
 1052              		.loc 1 404 33 view .LVU281
 1053              	.LBB134:
 407:./lib/lib8tion/math8.h ****     return i;
 1054              		.loc 1 407 5 view .LVU282
 407:./lib/lib8tion/math8.h ****     return i;
 1055              		.loc 1 407 16 view .LVU283
 408:./lib/lib8tion/math8.h **** #elif ABS8_AVRASM == 1
 1056              		.loc 1 408 5 view .LVU284
 408:./lib/lib8tion/math8.h **** #elif ABS8_AVRASM == 1
 1057              		.loc 1 408 5 is_stmt 0 view .LVU285
 1058              	.LBE134:
 1059              	.LBE135:
   7:quantum/rgb_matrix/animations/rainbow_pinwheels_anim.h ****     return hsv;
 1060              		.loc 14 7 5 is_stmt 1 view .LVU286
   6:quantum/rgb_matrix/animations/rainbow_pinwheels_anim.h ****     return hsv;
 1061              		.loc 14 6 149 is_stmt 0 view .LVU287
 1062 0036 48BF     		it	mi
 1063 0038 7F32     		addmi	r2, r2, #127
   6:quantum/rgb_matrix/animations/rainbow_pinwheels_anim.h ****     return hsv;
 1064              		.loc 14 6 11 view .LVU288
 1065 003a 00EBE212 		add	r2, r0, r2, asr #7
 1066              		.loc 14 7 12 view .LVU289
 1067 003e 8DF80420 		strb	r2, [sp, #4]
 1068 0042 019B     		ldr	r3, [sp, #4]
 1069 0044 0020     		movs	r0, #0
 1070 0046 DAB2     		uxtb	r2, r3
 1071 0048 62F30700 		bfi	r0, r2, #0, #8
 1072 004c C3F30722 		ubfx	r2, r3, #8, #8
 1073 0050 62F30F20 		bfi	r0, r2, #8, #8
 1074 0054 C3F30743 		ubfx	r3, r3, #16, #8
 1075 0058 63F31740 		bfi	r0, r3, #16, #8
   8:quantum/rgb_matrix/animations/rainbow_pinwheels_anim.h **** }
 1076              		.loc 14 8 1 view .LVU290
 1077 005c 05B0     		add	sp, sp, #20
 1078              		.cfi_def_cfa_offset 12
 1079              		@ sp needed
 1080 005e 30BD     		pop	{r4, r5, pc}
 1081              	.LVL87:
 1082              	.L54:
 1083              		.loc 14 8 1 view .LVU291
 1084              		.align	2
 1085              	.L53:
 1086 0060 00000000 		.word	g_led_config
 1087              		.cfi_endproc
 1088              	.LFE405:
 1090              		.section	.text.HUE_PENDULUM_math,"ax",%progbits
 1091              		.align	1
 1092              		.syntax unified
 1093              		.thumb
 1094              		.thumb_func
 1095              		.fpu fpv4-sp-d16
 1097              	HUE_PENDULUM_math:
 1098              	.LVL88:
 1099              	.LFB412:
 1100              		.file 15 "quantum/rgb_matrix/animations/hue_pendulum_anim.h"
   1:quantum/rgb_matrix/animations/hue_pendulum_anim.h **** #ifndef DISABLE_RGB_MATRIX_HUE_PENDULUM
   2:quantum/rgb_matrix/animations/hue_pendulum_anim.h **** RGB_MATRIX_EFFECT(HUE_PENDULUM)
   3:quantum/rgb_matrix/animations/hue_pendulum_anim.h **** #    ifdef RGB_MATRIX_CUSTOM_EFFECT_IMPLS
   4:quantum/rgb_matrix/animations/hue_pendulum_anim.h **** 
   5:quantum/rgb_matrix/animations/hue_pendulum_anim.h **** // Change huedelta to adjust range of hue change. 0-255.
   6:quantum/rgb_matrix/animations/hue_pendulum_anim.h **** // Looks better with a low value and slow speed for subtle change.
   7:quantum/rgb_matrix/animations/hue_pendulum_anim.h **** // Hue Pendulum - color changes in a wave to the right before reversing direction
   8:quantum/rgb_matrix/animations/hue_pendulum_anim.h **** static HSV HUE_PENDULUM_math(HSV hsv, uint8_t i, uint8_t time) {
 1101              		.loc 15 8 64 is_stmt 1 view -0
 1102              		.cfi_startproc
 1103              		@ args = 0, pretend = 0, frame = 16
 1104              		@ frame_needed = 0, uses_anonymous_args = 0
 1105              		.loc 15 8 64 is_stmt 0 view .LVU293
 1106 0000 30B5     		push	{r4, r5, lr}
 1107              		.cfi_def_cfa_offset 12
 1108              		.cfi_offset 4, -12
 1109              		.cfi_offset 5, -8
 1110              		.cfi_offset 14, -4
 1111 0002 85B0     		sub	sp, sp, #20
 1112              		.cfi_def_cfa_offset 32
 1113              		.loc 15 8 64 view .LVU294
 1114 0004 0D46     		mov	r5, r1
 1115 0006 0190     		str	r0, [sp, #4]
 1116 0008 C4B2     		uxtb	r4, r0
 1117              	.LVL89:
   9:quantum/rgb_matrix/animations/hue_pendulum_anim.h ****     uint8_t huedelta = 12;
 1118              		.loc 15 9 5 is_stmt 1 view .LVU295
  10:quantum/rgb_matrix/animations/hue_pendulum_anim.h ****     hsv.h            = hsv.h + scale8(abs8(sin8(time) + (g_led_config.point[i].x) - 128) * 2, huede
 1119              		.loc 15 10 5 view .LVU296
 1120              		.loc 15 10 44 is_stmt 0 view .LVU297
 1121 000a 1046     		mov	r0, r2
 1122 000c FFF7FEFF 		bl	sin8_C
 1123              	.LVL90:
 1124              		.loc 15 10 79 view .LVU298
 1125 0010 2C35     		adds	r5, r5, #44
 1126              		.loc 15 10 55 view .LVU299
 1127 0012 124B     		ldr	r3, .L57
 1128 0014 13F81520 		ldrb	r2, [r3, r5, lsl #1]	@ zero_extendqisi2
 1129 0018 1044     		add	r0, r0, r2
 1130 001a C2B2     		uxtb	r2, r0
 1131              		.loc 15 10 83 view .LVU300
 1132 001c A2F18003 		sub	r3, r2, #128
 1133              		.loc 15 10 39 view .LVU301
 1134 0020 5BB2     		sxtb	r3, r3
 1135              	.LVL91:
 1136              	.LBB136:
 1137              	.LBI136:
 404:./lib/lib8tion/math8.h **** {
 1138              		.loc 1 404 33 is_stmt 1 view .LVU302
 1139              	.LBB137:
 407:./lib/lib8tion/math8.h ****     return i;
 1140              		.loc 1 407 5 view .LVU303
 407:./lib/lib8tion/math8.h ****     return i;
 1141              		.loc 1 407 7 is_stmt 0 view .LVU304
 1142 0022 002B     		cmp	r3, #0
 407:./lib/lib8tion/math8.h ****     return i;
 1143              		.loc 1 407 16 is_stmt 1 view .LVU305
 407:./lib/lib8tion/math8.h ****     return i;
 1144              		.loc 1 407 18 is_stmt 0 view .LVU306
 1145 0024 BCBF     		itt	lt
 1146 0026 C2F18002 		rsblt	r2, r2, #128
 1147 002a 53B2     		sxtblt	r3, r2
 1148              	.LVL92:
 408:./lib/lib8tion/math8.h **** #elif ABS8_AVRASM == 1
 1149              		.loc 1 408 5 is_stmt 1 view .LVU307
 408:./lib/lib8tion/math8.h **** #elif ABS8_AVRASM == 1
 1150              		.loc 1 408 5 is_stmt 0 view .LVU308
 1151              	.LBE137:
 1152              	.LBE136:
 1153              	.LBB138:
 1154              	.LBI138:
  20:./lib/lib8tion/scale8.h **** {
 1155              		.loc 4 20 34 is_stmt 1 view .LVU309
 1156              	.LBB139:
 1157              		.loc 4 26 5 view .LVU310
 1158              		.loc 4 26 5 is_stmt 0 view .LVU311
 1159              	.LBE139:
 1160              	.LBE138:
  11:quantum/rgb_matrix/animations/hue_pendulum_anim.h ****     return hsv;
 1161              		.loc 15 11 5 is_stmt 1 view .LVU312
  10:quantum/rgb_matrix/animations/hue_pendulum_anim.h ****     return hsv;
 1162              		.loc 15 10 32 is_stmt 0 view .LVU313
 1163 002c 5B00     		lsls	r3, r3, #1
 1164              	.LVL93:
 1165              	.LBB141:
 1166              	.LBB140:
 1167              		.loc 4 26 25 view .LVU314
 1168 002e 03F0FE03 		and	r3, r3, #254
 1169 0032 03EB4303 		add	r3, r3, r3, lsl #1
 1170              	.LBE140:
 1171              	.LBE141:
  10:quantum/rgb_matrix/animations/hue_pendulum_anim.h ****     return hsv;
 1172              		.loc 15 10 30 view .LVU315
 1173 0036 04EB9313 		add	r3, r4, r3, lsr #6
 1174              		.loc 15 11 12 view .LVU316
 1175 003a 8DF80430 		strb	r3, [sp, #4]
 1176 003e 019B     		ldr	r3, [sp, #4]
 1177 0040 0020     		movs	r0, #0
 1178              	.LVL94:
 1179              		.loc 15 11 12 view .LVU317
 1180 0042 DAB2     		uxtb	r2, r3
 1181              		.loc 15 11 12 view .LVU318
 1182 0044 62F30700 		bfi	r0, r2, #0, #8
 1183 0048 C3F30722 		ubfx	r2, r3, #8, #8
 1184 004c 62F30F20 		bfi	r0, r2, #8, #8
 1185 0050 C3F30743 		ubfx	r3, r3, #16, #8
 1186 0054 63F31740 		bfi	r0, r3, #16, #8
  12:quantum/rgb_matrix/animations/hue_pendulum_anim.h **** }
 1187              		.loc 15 12 1 view .LVU319
 1188 0058 05B0     		add	sp, sp, #20
 1189              		.cfi_def_cfa_offset 12
 1190              		@ sp needed
 1191 005a 30BD     		pop	{r4, r5, pc}
 1192              	.L58:
 1193              		.align	2
 1194              	.L57:
 1195 005c 00000000 		.word	g_led_config
 1196              		.cfi_endproc
 1197              	.LFE412:
 1199              		.section	.text.HUE_WAVE_math,"ax",%progbits
 1200              		.align	1
 1201              		.syntax unified
 1202              		.thumb
 1203              		.thumb_func
 1204              		.fpu fpv4-sp-d16
 1206              	HUE_WAVE_math:
 1207              	.LVL95:
 1208              	.LFB414:
 1209              		.file 16 "quantum/rgb_matrix/animations/hue_wave_anim.h"
   1:quantum/rgb_matrix/animations/hue_wave_anim.h **** #ifndef DISABLE_RGB_MATRIX_HUE_WAVE
   2:quantum/rgb_matrix/animations/hue_wave_anim.h **** RGB_MATRIX_EFFECT(HUE_WAVE)
   3:quantum/rgb_matrix/animations/hue_wave_anim.h **** #    ifdef RGB_MATRIX_CUSTOM_EFFECT_IMPLS
   4:quantum/rgb_matrix/animations/hue_wave_anim.h **** 
   5:quantum/rgb_matrix/animations/hue_wave_anim.h **** // Change huedelta to adjust range of hue change. 0-255.
   6:quantum/rgb_matrix/animations/hue_wave_anim.h **** // Looks better with a low value and slow speed for subtle change.
   7:quantum/rgb_matrix/animations/hue_wave_anim.h **** // Hue Wave - color changes in a wave to the right
   8:quantum/rgb_matrix/animations/hue_wave_anim.h **** static HSV HUE_WAVE_math(HSV hsv, uint8_t i, uint8_t time) {
 1210              		.loc 16 8 60 is_stmt 1 view -0
 1211              		.cfi_startproc
 1212              		@ args = 0, pretend = 0, frame = 16
 1213              		@ frame_needed = 0, uses_anonymous_args = 0
 1214              		@ link register save eliminated.
 1215              		.loc 16 8 60 is_stmt 0 view .LVU321
 1216 0000 84B0     		sub	sp, sp, #16
 1217              		.cfi_def_cfa_offset 16
   9:quantum/rgb_matrix/animations/hue_wave_anim.h ****     uint8_t huedelta = 24;
  10:quantum/rgb_matrix/animations/hue_wave_anim.h ****     hsv.h            = hsv.h + scale8(abs8(g_led_config.point[i].x - time), huedelta);
 1218              		.loc 16 10 65 view .LVU322
 1219 0002 114B     		ldr	r3, .L61
   8:quantum/rgb_matrix/animations/hue_wave_anim.h ****     uint8_t huedelta = 24;
 1220              		.loc 16 8 60 view .LVU323
 1221 0004 0190     		str	r0, [sp, #4]
 1222              		.loc 16 10 65 view .LVU324
 1223 0006 2C31     		adds	r1, r1, #44
 1224              	.LVL96:
 1225              		.loc 16 10 65 view .LVU325
 1226 0008 C0B2     		uxtb	r0, r0
 1227              	.LVL97:
   9:quantum/rgb_matrix/animations/hue_wave_anim.h ****     uint8_t huedelta = 24;
 1228              		.loc 16 9 5 is_stmt 1 view .LVU326
 1229              		.loc 16 10 5 view .LVU327
 1230              		.loc 16 10 65 is_stmt 0 view .LVU328
 1231 000a 13F81110 		ldrb	r1, [r3, r1, lsl #1]	@ zero_extendqisi2
 1232              		.loc 16 10 68 view .LVU329
 1233 000e 8B1A     		subs	r3, r1, r2
 1234              		.loc 16 10 39 view .LVU330
 1235 0010 5BB2     		sxtb	r3, r3
 1236              	.LVL98:
 1237              	.LBB142:
 1238              	.LBI142:
 404:./lib/lib8tion/math8.h **** {
 1239              		.loc 1 404 33 is_stmt 1 view .LVU331
 1240              	.LBB143:
 407:./lib/lib8tion/math8.h ****     return i;
 1241              		.loc 1 407 5 view .LVU332
 407:./lib/lib8tion/math8.h ****     return i;
 1242              		.loc 1 407 7 is_stmt 0 view .LVU333
 1243 0012 002B     		cmp	r3, #0
 407:./lib/lib8tion/math8.h ****     return i;
 1244              		.loc 1 407 16 is_stmt 1 view .LVU334
 407:./lib/lib8tion/math8.h ****     return i;
 1245              		.loc 1 407 18 is_stmt 0 view .LVU335
 1246 0014 BCBF     		itt	lt
 1247 0016 521A     		sublt	r2, r2, r1
 1248              	.LVL99:
 407:./lib/lib8tion/math8.h ****     return i;
 1249              		.loc 1 407 18 view .LVU336
 1250 0018 53B2     		sxtblt	r3, r2
 1251              	.LVL100:
 408:./lib/lib8tion/math8.h **** #elif ABS8_AVRASM == 1
 1252              		.loc 1 408 5 is_stmt 1 view .LVU337
 408:./lib/lib8tion/math8.h **** #elif ABS8_AVRASM == 1
 1253              		.loc 1 408 5 is_stmt 0 view .LVU338
 1254              	.LBE143:
 1255              	.LBE142:
 1256              	.LBB144:
 1257              	.LBI144:
  20:./lib/lib8tion/scale8.h **** {
 1258              		.loc 4 20 34 is_stmt 1 view .LVU339
 1259              	.LBB145:
 1260              		.loc 4 26 5 view .LVU340
 1261              		.loc 4 26 5 is_stmt 0 view .LVU341
 1262              	.LBE145:
 1263              	.LBE144:
  11:quantum/rgb_matrix/animations/hue_wave_anim.h ****     return hsv;
 1264              		.loc 16 11 5 is_stmt 1 view .LVU342
 1265              	.LBB147:
 1266              	.LBB146:
 1267              		.loc 4 26 25 is_stmt 0 view .LVU343
 1268 001a DBB2     		uxtb	r3, r3
 1269              	.LVL101:
 1270              		.loc 4 26 25 view .LVU344
 1271 001c 03EB4303 		add	r3, r3, r3, lsl #1
 1272              	.LVL102:
 1273              		.loc 4 26 25 view .LVU345
 1274              	.LBE146:
 1275              	.LBE147:
  10:quantum/rgb_matrix/animations/hue_wave_anim.h ****     return hsv;
 1276              		.loc 16 10 30 view .LVU346
 1277 0020 00EB5313 		add	r3, r0, r3, lsr #5
 1278              		.loc 16 11 12 view .LVU347
 1279 0024 8DF80430 		strb	r3, [sp, #4]
 1280 0028 019B     		ldr	r3, [sp, #4]
 1281 002a 0020     		movs	r0, #0
 1282 002c DAB2     		uxtb	r2, r3
 1283              		.loc 16 11 12 view .LVU348
 1284 002e 62F30700 		bfi	r0, r2, #0, #8
 1285 0032 C3F30722 		ubfx	r2, r3, #8, #8
 1286 0036 62F30F20 		bfi	r0, r2, #8, #8
 1287 003a C3F30743 		ubfx	r3, r3, #16, #8
 1288 003e 63F31740 		bfi	r0, r3, #16, #8
  12:quantum/rgb_matrix/animations/hue_wave_anim.h **** }
 1289              		.loc 16 12 1 view .LVU349
 1290 0042 04B0     		add	sp, sp, #16
 1291              		.cfi_def_cfa_offset 0
 1292              		@ sp needed
 1293 0044 7047     		bx	lr
 1294              	.L62:
 1295 0046 00BF     		.align	2
 1296              	.L61:
 1297 0048 00000000 		.word	g_led_config
 1298              		.cfi_endproc
 1299              	.LFE414:
 1301              		.section	.text.atan2_8,"ax",%progbits
 1302              		.align	1
 1303              		.syntax unified
 1304              		.thumb
 1305              		.thumb_func
 1306              		.fpu fpv4-sp-d16
 1308              	atan2_8:
 1309              	.LVL103:
 1310              	.LFB337:
 245:./lib/lib8tion/trig8.h **** 
 246:./lib/lib8tion/trig8.h **** /// Fast 8-bit approximation of cos(x). This approximation never varies more than
 247:./lib/lib8tion/trig8.h **** /// 2% from the floating point value you'd get by doing
 248:./lib/lib8tion/trig8.h **** ///
 249:./lib/lib8tion/trig8.h **** ///     float s = (cos(x) * 128.0) + 128;
 250:./lib/lib8tion/trig8.h **** ///
 251:./lib/lib8tion/trig8.h **** /// @param theta input angle from 0-255
 252:./lib/lib8tion/trig8.h **** /// @returns sin of theta, value between 0 and 255
 253:./lib/lib8tion/trig8.h **** LIB8STATIC uint8_t cos8( uint8_t theta)
 254:./lib/lib8tion/trig8.h **** {
 255:./lib/lib8tion/trig8.h ****     return sin8( theta + 64);
 256:./lib/lib8tion/trig8.h **** }
 257:./lib/lib8tion/trig8.h **** 
 258:./lib/lib8tion/trig8.h **** /// Fast 16-bit approximation of atan2(x).
 259:./lib/lib8tion/trig8.h **** /// @returns atan2, value between 0 and 255
 260:./lib/lib8tion/trig8.h **** LIB8STATIC uint8_t atan2_8(int16_t dy, int16_t dx)
 261:./lib/lib8tion/trig8.h **** {
 1311              		.loc 2 261 1 is_stmt 1 view -0
 1312              		.cfi_startproc
 1313              		@ args = 0, pretend = 0, frame = 0
 1314              		@ frame_needed = 0, uses_anonymous_args = 0
 262:./lib/lib8tion/trig8.h ****     if (dy == 0)
 1315              		.loc 2 262 5 view .LVU351
 261:./lib/lib8tion/trig8.h ****     if (dy == 0)
 1316              		.loc 2 261 1 is_stmt 0 view .LVU352
 1317 0000 10B5     		push	{r4, lr}
 1318              		.cfi_def_cfa_offset 8
 1319              		.cfi_offset 4, -8
 1320              		.cfi_offset 14, -4
 1321              		.loc 2 262 8 view .LVU353
 1322 0002 0446     		mov	r4, r0
 1323 0004 20B9     		cbnz	r0, .L64
 263:./lib/lib8tion/trig8.h ****     {
 264:./lib/lib8tion/trig8.h ****         if (dx >= 0)
 1324              		.loc 2 264 9 is_stmt 1 view .LVU354
 265:./lib/lib8tion/trig8.h ****             return 0;
 266:./lib/lib8tion/trig8.h ****         else
 267:./lib/lib8tion/trig8.h ****             return 128;
 1325              		.loc 2 267 20 is_stmt 0 view .LVU355
 1326 0006 0029     		cmp	r1, #0
 1327 0008 ACBF     		ite	ge
 1328 000a 0020     		movge	r0, #0
 1329              	.LVL104:
 1330              		.loc 2 267 20 view .LVU356
 1331 000c 8020     		movlt	r0, #128
 1332              	.L65:
 268:./lib/lib8tion/trig8.h ****     }
 269:./lib/lib8tion/trig8.h **** 
 270:./lib/lib8tion/trig8.h ****     int16_t abs_y = dy > 0 ? dy : -dy;
 271:./lib/lib8tion/trig8.h ****     int8_t a;
 272:./lib/lib8tion/trig8.h **** 
 273:./lib/lib8tion/trig8.h ****     if (dx >= 0)
 274:./lib/lib8tion/trig8.h ****         a = 32 - (32 * (dx - abs_y) / (dx + abs_y));
 275:./lib/lib8tion/trig8.h ****     else
 276:./lib/lib8tion/trig8.h ****         a = 96 - (32 * (dx + abs_y) / (abs_y - dx));
 277:./lib/lib8tion/trig8.h **** 
 278:./lib/lib8tion/trig8.h ****     if (dy < 0)
 279:./lib/lib8tion/trig8.h ****         return -a;     // negate if in quad III or IV
 280:./lib/lib8tion/trig8.h ****     return a;
 281:./lib/lib8tion/trig8.h **** }
 1333              		.loc 2 281 1 view .LVU357
 1334 000e 10BD     		pop	{r4, pc}
 1335              	.LVL105:
 1336              	.L64:
 1337              	.LBB150:
 1338              	.LBI150:
 260:./lib/lib8tion/trig8.h **** {
 1339              		.loc 2 260 20 is_stmt 1 view .LVU358
 1340              	.LBB151:
 270:./lib/lib8tion/trig8.h ****     int8_t a;
 1341              		.loc 2 270 5 view .LVU359
 271:./lib/lib8tion/trig8.h **** 
 1342              		.loc 2 271 5 view .LVU360
 273:./lib/lib8tion/trig8.h ****         a = 32 - (32 * (dx - abs_y) / (dx + abs_y));
 1343              		.loc 2 273 5 view .LVU361
 270:./lib/lib8tion/trig8.h ****     int8_t a;
 1344              		.loc 2 270 33 is_stmt 0 view .LVU362
 1345 0010 80EAE072 		eor	r2, r0, r0, asr #31
 1346 0014 A2EBE072 		sub	r2, r2, r0, asr #31
 274:./lib/lib8tion/trig8.h ****     else
 1347              		.loc 2 274 28 view .LVU363
 1348 0018 13B2     		sxth	r3, r2
 273:./lib/lib8tion/trig8.h ****         a = 32 - (32 * (dx - abs_y) / (dx + abs_y));
 1349              		.loc 2 273 8 view .LVU364
 1350 001a 0029     		cmp	r1, #0
 274:./lib/lib8tion/trig8.h ****     else
 1351              		.loc 2 274 9 is_stmt 1 view .LVU365
 274:./lib/lib8tion/trig8.h ****     else
 1352              		.loc 2 274 28 is_stmt 0 view .LVU366
 1353 001c A6BF     		itte	ge
 1354 001e CB1A     		subge	r3, r1, r3
 274:./lib/lib8tion/trig8.h ****     else
 1355              		.loc 2 274 22 view .LVU367
 1356 0020 5B01     		lslge	r3, r3, #5
 276:./lib/lib8tion/trig8.h **** 
 1357              		.loc 2 276 46 view .LVU368
 1358 0022 5B1A     		sublt	r3, r3, r1
 274:./lib/lib8tion/trig8.h ****     else
 1359              		.loc 2 274 43 view .LVU369
 1360 0024 01FA82F2 		sxtah	r2, r1, r2
 276:./lib/lib8tion/trig8.h **** 
 1361              		.loc 2 276 22 view .LVU370
 1362 0028 B5BF     		itete	lt
 1363 002a 5201     		lsllt	r2, r2, #5
 274:./lib/lib8tion/trig8.h ****     else
 1364              		.loc 2 274 37 view .LVU371
 1365 002c 93FBF2F3 		sdivge	r3, r3, r2
 276:./lib/lib8tion/trig8.h **** 
 1366              		.loc 2 276 37 view .LVU372
 1367 0030 92FBF3F3 		sdivlt	r3, r2, r3
 274:./lib/lib8tion/trig8.h ****     else
 1368              		.loc 2 274 16 view .LVU373
 1369 0034 C3F12003 		rsbge	r3, r3, #32
 276:./lib/lib8tion/trig8.h **** 
 1370              		.loc 2 276 9 is_stmt 1 view .LVU374
 276:./lib/lib8tion/trig8.h **** 
 1371              		.loc 2 276 16 is_stmt 0 view .LVU375
 1372 0038 B8BF     		it	lt
 1373 003a C3F16003 		rsblt	r3, r3, #96
 276:./lib/lib8tion/trig8.h **** 
 1374              		.loc 2 276 11 view .LVU376
 1375 003e 5BB2     		sxtb	r3, r3
 1376              	.LVL106:
 278:./lib/lib8tion/trig8.h ****         return -a;     // negate if in quad III or IV
 1377              		.loc 2 278 5 is_stmt 1 view .LVU377
 279:./lib/lib8tion/trig8.h ****     return a;
 1378              		.loc 2 279 16 is_stmt 0 view .LVU378
 1379 0040 D8B2     		uxtb	r0, r3
 1380              	.LVL107:
 278:./lib/lib8tion/trig8.h ****         return -a;     // negate if in quad III or IV
 1381              		.loc 2 278 8 view .LVU379
 1382 0042 002C     		cmp	r4, #0
 279:./lib/lib8tion/trig8.h ****     return a;
 1383              		.loc 2 279 9 is_stmt 1 view .LVU380
 279:./lib/lib8tion/trig8.h ****     return a;
 1384              		.loc 2 279 16 is_stmt 0 view .LVU381
 1385 0044 BCBF     		itt	lt
 1386 0046 4042     		rsblt	r0, r0, #0
 1387 0048 C0B2     		uxtblt	r0, r0
 1388 004a E0E7     		b	.L65
 1389              	.LBE151:
 1390              	.LBE150:
 1391              		.cfi_endproc
 1392              	.LFE337:
 1394              		.section	.text.BAND_PINWHEEL_SAT_math,"ax",%progbits
 1395              		.align	1
 1396              		.syntax unified
 1397              		.thumb
 1398              		.thumb_func
 1399              		.fpu fpv4-sp-d16
 1401              	BAND_PINWHEEL_SAT_math:
 1402              	.LVL108:
 1403              	.LFB377:
 1404              		.file 17 "quantum/rgb_matrix/animations/colorband_pinwheel_sat_anim.h"
   1:quantum/rgb_matrix/animations/colorband_pinwheel_sat_anim.h **** #ifndef DISABLE_RGB_MATRIX_BAND_PINWHEEL_SAT
   2:quantum/rgb_matrix/animations/colorband_pinwheel_sat_anim.h **** RGB_MATRIX_EFFECT(BAND_PINWHEEL_SAT)
   3:quantum/rgb_matrix/animations/colorband_pinwheel_sat_anim.h **** #    ifdef RGB_MATRIX_CUSTOM_EFFECT_IMPLS
   4:quantum/rgb_matrix/animations/colorband_pinwheel_sat_anim.h **** 
   5:quantum/rgb_matrix/animations/colorband_pinwheel_sat_anim.h **** static HSV BAND_PINWHEEL_SAT_math(HSV hsv, int16_t dx, int16_t dy, uint8_t time) {
 1405              		.loc 17 5 82 is_stmt 1 view -0
 1406              		.cfi_startproc
 1407              		@ args = 0, pretend = 0, frame = 16
 1408              		@ frame_needed = 0, uses_anonymous_args = 0
 1409              		.loc 17 5 82 is_stmt 0 view .LVU383
 1410 0000 30B5     		push	{r4, r5, lr}
 1411              		.cfi_def_cfa_offset 12
 1412              		.cfi_offset 4, -12
 1413              		.cfi_offset 5, -8
 1414              		.cfi_offset 14, -4
 1415 0002 85B0     		sub	sp, sp, #20
 1416              		.cfi_def_cfa_offset 32
 1417 0004 C0F30725 		ubfx	r5, r0, #8, #8
 1418              	.LVL109:
   6:quantum/rgb_matrix/animations/colorband_pinwheel_sat_anim.h ****     hsv.s = scale8(hsv.s - time - atan2_8(dy, dx) * 3, hsv.s);
 1419              		.loc 17 6 5 is_stmt 1 view .LVU384
 1420              		.loc 17 6 26 is_stmt 0 view .LVU385
 1421 0008 EB1A     		subs	r3, r5, r3
 1422              	.LVL110:
   5:quantum/rgb_matrix/animations/colorband_pinwheel_sat_anim.h ****     hsv.s = scale8(hsv.s - time - atan2_8(dy, dx) * 3, hsv.s);
 1423              		.loc 17 5 82 view .LVU386
 1424 000a 0190     		str	r0, [sp, #4]
 1425              		.loc 17 6 35 view .LVU387
 1426 000c 1046     		mov	r0, r2
 1427              		.loc 17 6 26 view .LVU388
 1428 000e DCB2     		uxtb	r4, r3
 1429              		.loc 17 6 35 view .LVU389
 1430 0010 FFF7FEFF 		bl	atan2_8
 1431              	.LVL111:
 1432              	.LBB152:
 1433              	.LBI152:
  20:./lib/lib8tion/scale8.h **** {
 1434              		.loc 4 20 34 is_stmt 1 view .LVU390
 1435              	.LBB153:
 1436              		.loc 4 26 5 view .LVU391
 1437              		.loc 4 26 5 is_stmt 0 view .LVU392
 1438              	.LBE153:
 1439              	.LBE152:
   7:quantum/rgb_matrix/animations/colorband_pinwheel_sat_anim.h ****     return hsv;
 1440              		.loc 17 7 5 is_stmt 1 view .LVU393
   6:quantum/rgb_matrix/animations/colorband_pinwheel_sat_anim.h ****     return hsv;
 1441              		.loc 17 6 13 is_stmt 0 view .LVU394
 1442 0014 C0EB8013 		rsb	r3, r0, r0, lsl #6
 1443 0018 00EB8300 		add	r0, r0, r3, lsl #2
 1444              	.LVL112:
   6:quantum/rgb_matrix/animations/colorband_pinwheel_sat_anim.h ****     return hsv;
 1445              		.loc 17 6 13 view .LVU395
 1446 001c 2044     		add	r0, r0, r4
 1447              	.LBB155:
 1448              	.LBB154:
 1449              		.loc 4 26 25 view .LVU396
 1450 001e C0B2     		uxtb	r0, r0
 1451 0020 10FB05F0 		smulbb	r0, r0, r5
 1452              		.loc 4 26 47 view .LVU397
 1453 0024 0012     		asrs	r0, r0, #8
 1454 0026 8DF80500 		strb	r0, [sp, #5]
 1455              	.LBE154:
 1456              	.LBE155:
 1457              		.loc 17 7 12 view .LVU398
 1458 002a 019B     		ldr	r3, [sp, #4]
 1459 002c 0020     		movs	r0, #0
 1460 002e DAB2     		uxtb	r2, r3
 1461 0030 62F30700 		bfi	r0, r2, #0, #8
 1462 0034 C3F30722 		ubfx	r2, r3, #8, #8
 1463 0038 62F30F20 		bfi	r0, r2, #8, #8
 1464 003c C3F30743 		ubfx	r3, r3, #16, #8
 1465 0040 63F31740 		bfi	r0, r3, #16, #8
   8:quantum/rgb_matrix/animations/colorband_pinwheel_sat_anim.h **** }
 1466              		.loc 17 8 1 view .LVU399
 1467 0044 05B0     		add	sp, sp, #20
 1468              		.cfi_def_cfa_offset 12
 1469              		@ sp needed
 1470 0046 30BD     		pop	{r4, r5, pc}
 1471              		.cfi_endproc
 1472              	.LFE377:
 1474              		.section	.text.BAND_PINWHEEL_VAL_math,"ax",%progbits
 1475              		.align	1
 1476              		.syntax unified
 1477              		.thumb
 1478              		.thumb_func
 1479              		.fpu fpv4-sp-d16
 1481              	BAND_PINWHEEL_VAL_math:
 1482              	.LVL113:
 1483              	.LFB379:
 1484              		.file 18 "quantum/rgb_matrix/animations/colorband_pinwheel_val_anim.h"
   1:quantum/rgb_matrix/animations/colorband_pinwheel_val_anim.h **** #ifndef DISABLE_RGB_MATRIX_BAND_PINWHEEL_VAL
   2:quantum/rgb_matrix/animations/colorband_pinwheel_val_anim.h **** RGB_MATRIX_EFFECT(BAND_PINWHEEL_VAL)
   3:quantum/rgb_matrix/animations/colorband_pinwheel_val_anim.h **** #    ifdef RGB_MATRIX_CUSTOM_EFFECT_IMPLS
   4:quantum/rgb_matrix/animations/colorband_pinwheel_val_anim.h **** 
   5:quantum/rgb_matrix/animations/colorband_pinwheel_val_anim.h **** static HSV BAND_PINWHEEL_VAL_math(HSV hsv, int16_t dx, int16_t dy, uint8_t time) {
 1485              		.loc 18 5 82 is_stmt 1 view -0
 1486              		.cfi_startproc
 1487              		@ args = 0, pretend = 0, frame = 16
 1488              		@ frame_needed = 0, uses_anonymous_args = 0
 1489              		.loc 18 5 82 is_stmt 0 view .LVU401
 1490 0000 30B5     		push	{r4, r5, lr}
 1491              		.cfi_def_cfa_offset 12
 1492              		.cfi_offset 4, -12
 1493              		.cfi_offset 5, -8
 1494              		.cfi_offset 14, -4
 1495 0002 85B0     		sub	sp, sp, #20
 1496              		.cfi_def_cfa_offset 32
 1497 0004 C0F30745 		ubfx	r5, r0, #16, #8
 1498              	.LVL114:
   6:quantum/rgb_matrix/animations/colorband_pinwheel_val_anim.h ****     hsv.v = scale8(hsv.v - time - atan2_8(dy, dx) * 3, hsv.v);
 1499              		.loc 18 6 5 is_stmt 1 view .LVU402
 1500              		.loc 18 6 26 is_stmt 0 view .LVU403
 1501 0008 EB1A     		subs	r3, r5, r3
 1502              	.LVL115:
   5:quantum/rgb_matrix/animations/colorband_pinwheel_val_anim.h ****     hsv.v = scale8(hsv.v - time - atan2_8(dy, dx) * 3, hsv.v);
 1503              		.loc 18 5 82 view .LVU404
 1504 000a 0190     		str	r0, [sp, #4]
 1505              		.loc 18 6 35 view .LVU405
 1506 000c 1046     		mov	r0, r2
 1507              		.loc 18 6 26 view .LVU406
 1508 000e DCB2     		uxtb	r4, r3
 1509              		.loc 18 6 35 view .LVU407
 1510 0010 FFF7FEFF 		bl	atan2_8
 1511              	.LVL116:
 1512              	.LBB156:
 1513              	.LBI156:
  20:./lib/lib8tion/scale8.h **** {
 1514              		.loc 4 20 34 is_stmt 1 view .LVU408
 1515              	.LBB157:
 1516              		.loc 4 26 5 view .LVU409
 1517              		.loc 4 26 5 is_stmt 0 view .LVU410
 1518              	.LBE157:
 1519              	.LBE156:
   7:quantum/rgb_matrix/animations/colorband_pinwheel_val_anim.h ****     return hsv;
 1520              		.loc 18 7 5 is_stmt 1 view .LVU411
   6:quantum/rgb_matrix/animations/colorband_pinwheel_val_anim.h ****     return hsv;
 1521              		.loc 18 6 13 is_stmt 0 view .LVU412
 1522 0014 C0EB8013 		rsb	r3, r0, r0, lsl #6
 1523 0018 00EB8300 		add	r0, r0, r3, lsl #2
 1524              	.LVL117:
   6:quantum/rgb_matrix/animations/colorband_pinwheel_val_anim.h ****     return hsv;
 1525              		.loc 18 6 13 view .LVU413
 1526 001c 2044     		add	r0, r0, r4
 1527              	.LBB159:
 1528              	.LBB158:
 1529              		.loc 4 26 25 view .LVU414
 1530 001e C0B2     		uxtb	r0, r0
 1531 0020 10FB05F0 		smulbb	r0, r0, r5
 1532              		.loc 4 26 47 view .LVU415
 1533 0024 0012     		asrs	r0, r0, #8
 1534 0026 8DF80600 		strb	r0, [sp, #6]
 1535              	.LBE158:
 1536              	.LBE159:
 1537              		.loc 18 7 12 view .LVU416
 1538 002a 019B     		ldr	r3, [sp, #4]
 1539 002c 0020     		movs	r0, #0
 1540 002e DAB2     		uxtb	r2, r3
 1541 0030 62F30700 		bfi	r0, r2, #0, #8
 1542 0034 C3F30722 		ubfx	r2, r3, #8, #8
 1543 0038 62F30F20 		bfi	r0, r2, #8, #8
 1544 003c C3F30743 		ubfx	r3, r3, #16, #8
 1545 0040 63F31740 		bfi	r0, r3, #16, #8
   8:quantum/rgb_matrix/animations/colorband_pinwheel_val_anim.h **** }
 1546              		.loc 18 8 1 view .LVU417
 1547 0044 05B0     		add	sp, sp, #20
 1548              		.cfi_def_cfa_offset 12
 1549              		@ sp needed
 1550 0046 30BD     		pop	{r4, r5, pc}
 1551              		.cfi_endproc
 1552              	.LFE379:
 1554              		.section	.text.BAND_SPIRAL_SAT_math,"ax",%progbits
 1555              		.align	1
 1556              		.syntax unified
 1557              		.thumb
 1558              		.thumb_func
 1559              		.fpu fpv4-sp-d16
 1561              	BAND_SPIRAL_SAT_math:
 1562              	.LVL118:
 1563              	.LFB381:
 1564              		.file 19 "quantum/rgb_matrix/animations/colorband_spiral_sat_anim.h"
   1:quantum/rgb_matrix/animations/colorband_spiral_sat_anim.h **** #ifndef DISABLE_RGB_MATRIX_BAND_SPIRAL_SAT
   2:quantum/rgb_matrix/animations/colorband_spiral_sat_anim.h **** RGB_MATRIX_EFFECT(BAND_SPIRAL_SAT)
   3:quantum/rgb_matrix/animations/colorband_spiral_sat_anim.h **** #    ifdef RGB_MATRIX_CUSTOM_EFFECT_IMPLS
   4:quantum/rgb_matrix/animations/colorband_spiral_sat_anim.h **** 
   5:quantum/rgb_matrix/animations/colorband_spiral_sat_anim.h **** static HSV BAND_SPIRAL_SAT_math(HSV hsv, int16_t dx, int16_t dy, uint8_t dist, uint8_t time) {
 1565              		.loc 19 5 94 is_stmt 1 view -0
 1566              		.cfi_startproc
 1567              		@ args = 4, pretend = 0, frame = 16
 1568              		@ frame_needed = 0, uses_anonymous_args = 0
 1569              		.loc 19 5 94 is_stmt 0 view .LVU419
 1570 0000 30B5     		push	{r4, r5, lr}
 1571              		.cfi_def_cfa_offset 12
 1572              		.cfi_offset 4, -12
 1573              		.cfi_offset 5, -8
 1574              		.cfi_offset 14, -4
 1575 0002 85B0     		sub	sp, sp, #20
 1576              		.cfi_def_cfa_offset 32
 1577 0004 C0F30725 		ubfx	r5, r0, #8, #8
 1578              	.LVL119:
   6:quantum/rgb_matrix/animations/colorband_spiral_sat_anim.h ****     hsv.s = scale8(hsv.s + dist - time - atan2_8(dy, dx), hsv.s);
 1579              		.loc 19 6 5 is_stmt 1 view .LVU420
 1580              		.loc 19 6 33 is_stmt 0 view .LVU421
 1581 0008 9DF82040 		ldrb	r4, [sp, #32]	@ zero_extendqisi2
   5:quantum/rgb_matrix/animations/colorband_spiral_sat_anim.h ****     hsv.s = scale8(hsv.s + dist - time - atan2_8(dy, dx), hsv.s);
 1582              		.loc 19 5 94 view .LVU422
 1583 000c 0190     		str	r0, [sp, #4]
 1584              		.loc 19 6 42 view .LVU423
 1585 000e 1046     		mov	r0, r2
 1586              		.loc 19 6 33 view .LVU424
 1587 0010 1C1B     		subs	r4, r3, r4
 1588              		.loc 19 6 42 view .LVU425
 1589 0012 FFF7FEFF 		bl	atan2_8
 1590              	.LVL120:
 1591              		.loc 19 6 33 view .LVU426
 1592 0016 2C44     		add	r4, r4, r5
 1593 0018 E4B2     		uxtb	r4, r4
 1594              	.LVL121:
 1595              	.LBB160:
 1596              	.LBI160:
  20:./lib/lib8tion/scale8.h **** {
 1597              		.loc 4 20 34 is_stmt 1 view .LVU427
 1598              	.LBB161:
 1599              		.loc 4 26 5 view .LVU428
 1600              		.loc 4 26 5 is_stmt 0 view .LVU429
 1601              	.LBE161:
 1602              	.LBE160:
   7:quantum/rgb_matrix/animations/colorband_spiral_sat_anim.h ****     return hsv;
 1603              		.loc 19 7 5 is_stmt 1 view .LVU430
   6:quantum/rgb_matrix/animations/colorband_spiral_sat_anim.h ****     return hsv;
 1604              		.loc 19 6 13 is_stmt 0 view .LVU431
 1605 001a 201A     		subs	r0, r4, r0
 1606              	.LVL122:
 1607              	.LBB163:
 1608              	.LBB162:
 1609              		.loc 4 26 25 view .LVU432
 1610 001c C0B2     		uxtb	r0, r0
 1611 001e 10FB05F0 		smulbb	r0, r0, r5
 1612              		.loc 4 26 47 view .LVU433
 1613 0022 0012     		asrs	r0, r0, #8
 1614 0024 8DF80500 		strb	r0, [sp, #5]
 1615              	.LBE162:
 1616              	.LBE163:
 1617              		.loc 19 7 12 view .LVU434
 1618 0028 019B     		ldr	r3, [sp, #4]
 1619 002a 0020     		movs	r0, #0
 1620 002c DAB2     		uxtb	r2, r3
 1621 002e 62F30700 		bfi	r0, r2, #0, #8
 1622 0032 C3F30722 		ubfx	r2, r3, #8, #8
 1623 0036 62F30F20 		bfi	r0, r2, #8, #8
 1624 003a C3F30743 		ubfx	r3, r3, #16, #8
 1625 003e 63F31740 		bfi	r0, r3, #16, #8
   8:quantum/rgb_matrix/animations/colorband_spiral_sat_anim.h **** }
 1626              		.loc 19 8 1 view .LVU435
 1627 0042 05B0     		add	sp, sp, #20
 1628              		.cfi_def_cfa_offset 12
 1629              		@ sp needed
 1630 0044 30BD     		pop	{r4, r5, pc}
 1631              		.loc 19 8 1 view .LVU436
 1632              		.cfi_endproc
 1633              	.LFE381:
 1635              		.section	.text.BAND_SPIRAL_VAL_math,"ax",%progbits
 1636              		.align	1
 1637              		.syntax unified
 1638              		.thumb
 1639              		.thumb_func
 1640              		.fpu fpv4-sp-d16
 1642              	BAND_SPIRAL_VAL_math:
 1643              	.LVL123:
 1644              	.LFB383:
 1645              		.file 20 "quantum/rgb_matrix/animations/colorband_spiral_val_anim.h"
   1:quantum/rgb_matrix/animations/colorband_spiral_val_anim.h **** #ifndef DISABLE_RGB_MATRIX_BAND_SPIRAL_VAL
   2:quantum/rgb_matrix/animations/colorband_spiral_val_anim.h **** RGB_MATRIX_EFFECT(BAND_SPIRAL_VAL)
   3:quantum/rgb_matrix/animations/colorband_spiral_val_anim.h **** #    ifdef RGB_MATRIX_CUSTOM_EFFECT_IMPLS
   4:quantum/rgb_matrix/animations/colorband_spiral_val_anim.h **** 
   5:quantum/rgb_matrix/animations/colorband_spiral_val_anim.h **** static HSV BAND_SPIRAL_VAL_math(HSV hsv, int16_t dx, int16_t dy, uint8_t dist, uint8_t time) {
 1646              		.loc 20 5 94 is_stmt 1 view -0
 1647              		.cfi_startproc
 1648              		@ args = 4, pretend = 0, frame = 16
 1649              		@ frame_needed = 0, uses_anonymous_args = 0
 1650              		.loc 20 5 94 is_stmt 0 view .LVU438
 1651 0000 30B5     		push	{r4, r5, lr}
 1652              		.cfi_def_cfa_offset 12
 1653              		.cfi_offset 4, -12
 1654              		.cfi_offset 5, -8
 1655              		.cfi_offset 14, -4
 1656 0002 85B0     		sub	sp, sp, #20
 1657              		.cfi_def_cfa_offset 32
 1658 0004 C0F30745 		ubfx	r5, r0, #16, #8
 1659              	.LVL124:
   6:quantum/rgb_matrix/animations/colorband_spiral_val_anim.h ****     hsv.v = scale8(hsv.v + dist - time - atan2_8(dy, dx), hsv.v);
 1660              		.loc 20 6 5 is_stmt 1 view .LVU439
 1661              		.loc 20 6 33 is_stmt 0 view .LVU440
 1662 0008 9DF82040 		ldrb	r4, [sp, #32]	@ zero_extendqisi2
   5:quantum/rgb_matrix/animations/colorband_spiral_val_anim.h ****     hsv.v = scale8(hsv.v + dist - time - atan2_8(dy, dx), hsv.v);
 1663              		.loc 20 5 94 view .LVU441
 1664 000c 0190     		str	r0, [sp, #4]
 1665              		.loc 20 6 42 view .LVU442
 1666 000e 1046     		mov	r0, r2
 1667              		.loc 20 6 33 view .LVU443
 1668 0010 1C1B     		subs	r4, r3, r4
 1669              		.loc 20 6 42 view .LVU444
 1670 0012 FFF7FEFF 		bl	atan2_8
 1671              	.LVL125:
 1672              		.loc 20 6 33 view .LVU445
 1673 0016 2C44     		add	r4, r4, r5
 1674 0018 E4B2     		uxtb	r4, r4
 1675              	.LVL126:
 1676              	.LBB164:
 1677              	.LBI164:
  20:./lib/lib8tion/scale8.h **** {
 1678              		.loc 4 20 34 is_stmt 1 view .LVU446
 1679              	.LBB165:
 1680              		.loc 4 26 5 view .LVU447
 1681              		.loc 4 26 5 is_stmt 0 view .LVU448
 1682              	.LBE165:
 1683              	.LBE164:
   7:quantum/rgb_matrix/animations/colorband_spiral_val_anim.h ****     return hsv;
 1684              		.loc 20 7 5 is_stmt 1 view .LVU449
   6:quantum/rgb_matrix/animations/colorband_spiral_val_anim.h ****     return hsv;
 1685              		.loc 20 6 13 is_stmt 0 view .LVU450
 1686 001a 201A     		subs	r0, r4, r0
 1687              	.LVL127:
 1688              	.LBB167:
 1689              	.LBB166:
 1690              		.loc 4 26 25 view .LVU451
 1691 001c C0B2     		uxtb	r0, r0
 1692 001e 10FB05F0 		smulbb	r0, r0, r5
 1693              		.loc 4 26 47 view .LVU452
 1694 0022 0012     		asrs	r0, r0, #8
 1695 0024 8DF80600 		strb	r0, [sp, #6]
 1696              	.LBE166:
 1697              	.LBE167:
 1698              		.loc 20 7 12 view .LVU453
 1699 0028 019B     		ldr	r3, [sp, #4]
 1700 002a 0020     		movs	r0, #0
 1701 002c DAB2     		uxtb	r2, r3
 1702 002e 62F30700 		bfi	r0, r2, #0, #8
 1703 0032 C3F30722 		ubfx	r2, r3, #8, #8
 1704 0036 62F30F20 		bfi	r0, r2, #8, #8
 1705 003a C3F30743 		ubfx	r3, r3, #16, #8
 1706 003e 63F31740 		bfi	r0, r3, #16, #8
   8:quantum/rgb_matrix/animations/colorband_spiral_val_anim.h **** }
 1707              		.loc 20 8 1 view .LVU454
 1708 0042 05B0     		add	sp, sp, #20
 1709              		.cfi_def_cfa_offset 12
 1710              		@ sp needed
 1711 0044 30BD     		pop	{r4, r5, pc}
 1712              		.loc 20 8 1 view .LVU455
 1713              		.cfi_endproc
 1714              	.LFE383:
 1716              		.section	.text.CYCLE_PINWHEEL_math,"ax",%progbits
 1717              		.align	1
 1718              		.syntax unified
 1719              		.thumb
 1720              		.thumb_func
 1721              		.fpu fpv4-sp-d16
 1723              	CYCLE_PINWHEEL_math:
 1724              	.LVL128:
 1725              	.LFB397:
 1726              		.file 21 "quantum/rgb_matrix/animations/cycle_pinwheel_anim.h"
   1:quantum/rgb_matrix/animations/cycle_pinwheel_anim.h **** #ifndef DISABLE_RGB_MATRIX_CYCLE_PINWHEEL
   2:quantum/rgb_matrix/animations/cycle_pinwheel_anim.h **** RGB_MATRIX_EFFECT(CYCLE_PINWHEEL)
   3:quantum/rgb_matrix/animations/cycle_pinwheel_anim.h **** #    ifdef RGB_MATRIX_CUSTOM_EFFECT_IMPLS
   4:quantum/rgb_matrix/animations/cycle_pinwheel_anim.h **** 
   5:quantum/rgb_matrix/animations/cycle_pinwheel_anim.h **** static HSV CYCLE_PINWHEEL_math(HSV hsv, int16_t dx, int16_t dy, uint8_t time) {
 1727              		.loc 21 5 79 is_stmt 1 view -0
 1728              		.cfi_startproc
 1729              		@ args = 0, pretend = 0, frame = 16
 1730              		@ frame_needed = 0, uses_anonymous_args = 0
 1731              		.loc 21 5 79 is_stmt 0 view .LVU457
 1732 0000 1FB5     		push	{r0, r1, r2, r3, r4, lr}
 1733              		.cfi_def_cfa_offset 24
 1734              		.cfi_offset 4, -8
 1735              		.cfi_offset 14, -4
 1736              	.LVL129:
   6:quantum/rgb_matrix/animations/cycle_pinwheel_anim.h ****     hsv.h = atan2_8(dy, dx) + time;
 1737              		.loc 21 6 5 is_stmt 1 view .LVU458
   5:quantum/rgb_matrix/animations/cycle_pinwheel_anim.h ****     hsv.h = atan2_8(dy, dx) + time;
 1738              		.loc 21 5 79 is_stmt 0 view .LVU459
 1739 0002 0190     		str	r0, [sp, #4]
 1740              	.LVL130:
 1741              		.loc 21 6 13 view .LVU460
 1742 0004 1046     		mov	r0, r2
   5:quantum/rgb_matrix/animations/cycle_pinwheel_anim.h ****     hsv.h = atan2_8(dy, dx) + time;
 1743              		.loc 21 5 79 view .LVU461
 1744 0006 1C46     		mov	r4, r3
 1745              		.loc 21 6 13 view .LVU462
 1746 0008 FFF7FEFF 		bl	atan2_8
 1747              	.LVL131:
   7:quantum/rgb_matrix/animations/cycle_pinwheel_anim.h ****     return hsv;
 1748              		.loc 21 7 5 is_stmt 1 view .LVU463
   6:quantum/rgb_matrix/animations/cycle_pinwheel_anim.h ****     hsv.h = atan2_8(dy, dx) + time;
 1749              		.loc 21 6 29 is_stmt 0 view .LVU464
 1750 000c 2044     		add	r0, r0, r4
 1751              	.LVL132:
 1752              		.loc 21 7 12 view .LVU465
 1753 000e 8DF80400 		strb	r0, [sp, #4]
 1754 0012 019B     		ldr	r3, [sp, #4]
 1755 0014 0020     		movs	r0, #0
 1756 0016 DAB2     		uxtb	r2, r3
 1757 0018 62F30700 		bfi	r0, r2, #0, #8
 1758 001c C3F30722 		ubfx	r2, r3, #8, #8
 1759 0020 62F30F20 		bfi	r0, r2, #8, #8
 1760 0024 C3F30743 		ubfx	r3, r3, #16, #8
 1761 0028 63F31740 		bfi	r0, r3, #16, #8
   8:quantum/rgb_matrix/animations/cycle_pinwheel_anim.h **** }
 1762              		.loc 21 8 1 view .LVU466
 1763 002c 04B0     		add	sp, sp, #16
 1764              		.cfi_def_cfa_offset 8
 1765              		@ sp needed
 1766 002e 10BD     		pop	{r4, pc}
 1767              		.cfi_endproc
 1768              	.LFE397:
 1770              		.section	.text.CYCLE_SPIRAL_math,"ax",%progbits
 1771              		.align	1
 1772              		.syntax unified
 1773              		.thumb
 1774              		.thumb_func
 1775              		.fpu fpv4-sp-d16
 1777              	CYCLE_SPIRAL_math:
 1778              	.LVL133:
 1779              	.LFB399:
 1780              		.file 22 "quantum/rgb_matrix/animations/cycle_spiral_anim.h"
   1:quantum/rgb_matrix/animations/cycle_spiral_anim.h **** #ifndef DISABLE_RGB_MATRIX_CYCLE_SPIRAL
   2:quantum/rgb_matrix/animations/cycle_spiral_anim.h **** RGB_MATRIX_EFFECT(CYCLE_SPIRAL)
   3:quantum/rgb_matrix/animations/cycle_spiral_anim.h **** #    ifdef RGB_MATRIX_CUSTOM_EFFECT_IMPLS
   4:quantum/rgb_matrix/animations/cycle_spiral_anim.h **** 
   5:quantum/rgb_matrix/animations/cycle_spiral_anim.h **** static HSV CYCLE_SPIRAL_math(HSV hsv, int16_t dx, int16_t dy, uint8_t dist, uint8_t time) {
 1781              		.loc 22 5 91 is_stmt 1 view -0
 1782              		.cfi_startproc
 1783              		@ args = 4, pretend = 0, frame = 16
 1784              		@ frame_needed = 0, uses_anonymous_args = 0
 1785              		.loc 22 5 91 is_stmt 0 view .LVU468
 1786 0000 1FB5     		push	{r0, r1, r2, r3, r4, lr}
 1787              		.cfi_def_cfa_offset 24
 1788              		.cfi_offset 4, -8
 1789              		.cfi_offset 14, -4
 1790              	.LVL134:
   6:quantum/rgb_matrix/animations/cycle_spiral_anim.h ****     hsv.h = dist - time - atan2_8(dy, dx);
 1791              		.loc 22 6 5 is_stmt 1 view .LVU469
 1792              		.loc 22 6 18 is_stmt 0 view .LVU470
 1793 0002 9DF81840 		ldrb	r4, [sp, #24]	@ zero_extendqisi2
   5:quantum/rgb_matrix/animations/cycle_spiral_anim.h ****     hsv.h = dist - time - atan2_8(dy, dx);
 1794              		.loc 22 5 91 view .LVU471
 1795 0006 0190     		str	r0, [sp, #4]
 1796              	.LVL135:
 1797              		.loc 22 6 18 view .LVU472
 1798 0008 1B1B     		subs	r3, r3, r4
 1799              	.LVL136:
 1800              		.loc 22 6 27 view .LVU473
 1801 000a 1046     		mov	r0, r2
 1802              		.loc 22 6 18 view .LVU474
 1803 000c DCB2     		uxtb	r4, r3
 1804              		.loc 22 6 27 view .LVU475
 1805 000e FFF7FEFF 		bl	atan2_8
 1806              	.LVL137:
   7:quantum/rgb_matrix/animations/cycle_spiral_anim.h ****     return hsv;
 1807              		.loc 22 7 5 is_stmt 1 view .LVU476
   6:quantum/rgb_matrix/animations/cycle_spiral_anim.h ****     hsv.h = dist - time - atan2_8(dy, dx);
 1808              		.loc 22 6 25 is_stmt 0 view .LVU477
 1809 0012 201A     		subs	r0, r4, r0
 1810              	.LVL138:
 1811              		.loc 22 7 12 view .LVU478
 1812 0014 8DF80400 		strb	r0, [sp, #4]
 1813 0018 019B     		ldr	r3, [sp, #4]
 1814 001a 0020     		movs	r0, #0
 1815 001c DAB2     		uxtb	r2, r3
 1816 001e 62F30700 		bfi	r0, r2, #0, #8
 1817 0022 C3F30722 		ubfx	r2, r3, #8, #8
 1818 0026 62F30F20 		bfi	r0, r2, #8, #8
 1819 002a C3F30743 		ubfx	r3, r3, #16, #8
 1820 002e 63F31740 		bfi	r0, r3, #16, #8
   8:quantum/rgb_matrix/animations/cycle_spiral_anim.h **** }
 1821              		.loc 22 8 1 view .LVU479
 1822 0032 04B0     		add	sp, sp, #16
 1823              		.cfi_def_cfa_offset 8
 1824              		@ sp needed
 1825 0034 10BD     		pop	{r4, pc}
 1826              		.loc 22 8 1 view .LVU480
 1827              		.cfi_endproc
 1828              	.LFE399:
 1830              		.section	.text.rgb_matrix_hsv_to_rgb,"ax",%progbits
 1831              		.align	1
 1832              		.weak	rgb_matrix_hsv_to_rgb
 1833              		.syntax unified
 1834              		.thumb
 1835              		.thumb_func
 1836              		.fpu fpv4-sp-d16
 1838              	rgb_matrix_hsv_to_rgb:
 1839              	.LFB363:
 1840              		.file 23 "quantum/rgb_matrix/rgb_matrix.c"
   1:quantum/rgb_matrix/rgb_matrix.c **** /* Copyright 2017 Jason Williams
   2:quantum/rgb_matrix/rgb_matrix.c ****  * Copyright 2017 Jack Humbert
   3:quantum/rgb_matrix/rgb_matrix.c ****  * Copyright 2018 Yiancar
   4:quantum/rgb_matrix/rgb_matrix.c ****  *
   5:quantum/rgb_matrix/rgb_matrix.c ****  * This program is free software: you can redistribute it and/or modify
   6:quantum/rgb_matrix/rgb_matrix.c ****  * it under the terms of the GNU General Public License as published by
   7:quantum/rgb_matrix/rgb_matrix.c ****  * the Free Software Foundation, either version 2 of the License, or
   8:quantum/rgb_matrix/rgb_matrix.c ****  * (at your option) any later version.
   9:quantum/rgb_matrix/rgb_matrix.c ****  *
  10:quantum/rgb_matrix/rgb_matrix.c ****  * This program is distributed in the hope that it will be useful,
  11:quantum/rgb_matrix/rgb_matrix.c ****  * but WITHOUT ANY WARRANTY; without even the implied warranty of
  12:quantum/rgb_matrix/rgb_matrix.c ****  * MERCHANTABILITY or FITNESS FOR A PARTICULAR PURPOSE.  See the
  13:quantum/rgb_matrix/rgb_matrix.c ****  * GNU General Public License for more details.
  14:quantum/rgb_matrix/rgb_matrix.c ****  *
  15:quantum/rgb_matrix/rgb_matrix.c ****  * You should have received a copy of the GNU General Public License
  16:quantum/rgb_matrix/rgb_matrix.c ****  * along with this program.  If not, see <http://www.gnu.org/licenses/>.
  17:quantum/rgb_matrix/rgb_matrix.c ****  */
  18:quantum/rgb_matrix/rgb_matrix.c **** 
  19:quantum/rgb_matrix/rgb_matrix.c **** #include "rgb_matrix.h"
  20:quantum/rgb_matrix/rgb_matrix.c **** #include "progmem.h"
  21:quantum/rgb_matrix/rgb_matrix.c **** #include "config.h"
  22:quantum/rgb_matrix/rgb_matrix.c **** #include "eeprom.h"
  23:quantum/rgb_matrix/rgb_matrix.c **** #include <string.h>
  24:quantum/rgb_matrix/rgb_matrix.c **** #include <math.h>
  25:quantum/rgb_matrix/rgb_matrix.c **** 
  26:quantum/rgb_matrix/rgb_matrix.c **** #include <lib/lib8tion/lib8tion.h>
  27:quantum/rgb_matrix/rgb_matrix.c **** 
  28:quantum/rgb_matrix/rgb_matrix.c **** #ifndef RGB_MATRIX_CENTER
  29:quantum/rgb_matrix/rgb_matrix.c **** const led_point_t k_rgb_matrix_center = {112, 32};
  30:quantum/rgb_matrix/rgb_matrix.c **** #else
  31:quantum/rgb_matrix/rgb_matrix.c **** const led_point_t k_rgb_matrix_center = RGB_MATRIX_CENTER;
  32:quantum/rgb_matrix/rgb_matrix.c **** #endif
  33:quantum/rgb_matrix/rgb_matrix.c **** 
  34:quantum/rgb_matrix/rgb_matrix.c **** // clang-format off
  35:quantum/rgb_matrix/rgb_matrix.c **** #ifndef RGB_MATRIX_IMMEDIATE_EEPROM
  36:quantum/rgb_matrix/rgb_matrix.c **** #    define rgb_eeconfig_update(v) rgb_update_eeprom |= v
  37:quantum/rgb_matrix/rgb_matrix.c **** #else
  38:quantum/rgb_matrix/rgb_matrix.c **** #    define rgb_eeconfig_update(v) if (v) eeconfig_update_rgb_matrix()
  39:quantum/rgb_matrix/rgb_matrix.c **** #endif
  40:quantum/rgb_matrix/rgb_matrix.c **** // clang-format on
  41:quantum/rgb_matrix/rgb_matrix.c **** 
  42:quantum/rgb_matrix/rgb_matrix.c **** __attribute__((weak)) RGB rgb_matrix_hsv_to_rgb(HSV hsv) { return hsv_to_rgb(hsv); }
 1841              		.loc 23 42 58 is_stmt 1 view -0
 1842              		.cfi_startproc
 1843              		@ args = 0, pretend = 0, frame = 16
 1844              		@ frame_needed = 0, uses_anonymous_args = 0
 1845              		@ link register save eliminated.
 1846              		.loc 23 42 60 view .LVU482
 1847              		.loc 23 42 58 is_stmt 0 view .LVU483
 1848 0000 84B0     		sub	sp, sp, #16
 1849              		.cfi_def_cfa_offset 16
 1850              		.loc 23 42 84 view .LVU484
 1851 0002 04B0     		add	sp, sp, #16
 1852              		.cfi_def_cfa_offset 0
 1853              		@ sp needed
 1854              		.loc 23 42 67 view .LVU485
 1855 0004 FFF7FEBF 		b	hsv_to_rgb
 1856              	.LVL139:
 1857              		.cfi_endproc
 1858              	.LFE363:
 1860              		.section	.text.eeconfig_read_rgb_matrix,"ax",%progbits
 1861              		.align	1
 1862              		.global	eeconfig_read_rgb_matrix
 1863              		.syntax unified
 1864              		.thumb
 1865              		.thumb_func
 1866              		.fpu fpv4-sp-d16
 1868              	eeconfig_read_rgb_matrix:
 1869              	.LFB416:
  43:quantum/rgb_matrix/rgb_matrix.c **** 
  44:quantum/rgb_matrix/rgb_matrix.c **** // Generic effect runners
  45:quantum/rgb_matrix/rgb_matrix.c **** #include "rgb_matrix_runners.inc"
  46:quantum/rgb_matrix/rgb_matrix.c **** 
  47:quantum/rgb_matrix/rgb_matrix.c **** // ------------------------------------------
  48:quantum/rgb_matrix/rgb_matrix.c **** // -----Begin rgb effect includes macros-----
  49:quantum/rgb_matrix/rgb_matrix.c **** #define RGB_MATRIX_EFFECT(name)
  50:quantum/rgb_matrix/rgb_matrix.c **** #define RGB_MATRIX_CUSTOM_EFFECT_IMPLS
  51:quantum/rgb_matrix/rgb_matrix.c **** 
  52:quantum/rgb_matrix/rgb_matrix.c **** #include "rgb_matrix_effects.inc"
  53:quantum/rgb_matrix/rgb_matrix.c **** #ifdef RGB_MATRIX_CUSTOM_KB
  54:quantum/rgb_matrix/rgb_matrix.c **** #    include "rgb_matrix_kb.inc"
  55:quantum/rgb_matrix/rgb_matrix.c **** #endif
  56:quantum/rgb_matrix/rgb_matrix.c **** #ifdef RGB_MATRIX_CUSTOM_USER
  57:quantum/rgb_matrix/rgb_matrix.c **** #    include "rgb_matrix_user.inc"
  58:quantum/rgb_matrix/rgb_matrix.c **** #endif
  59:quantum/rgb_matrix/rgb_matrix.c **** 
  60:quantum/rgb_matrix/rgb_matrix.c **** #undef RGB_MATRIX_CUSTOM_EFFECT_IMPLS
  61:quantum/rgb_matrix/rgb_matrix.c **** #undef RGB_MATRIX_EFFECT
  62:quantum/rgb_matrix/rgb_matrix.c **** // -----End rgb effect includes macros-------
  63:quantum/rgb_matrix/rgb_matrix.c **** // ------------------------------------------
  64:quantum/rgb_matrix/rgb_matrix.c **** 
  65:quantum/rgb_matrix/rgb_matrix.c **** #if defined(RGB_DISABLE_AFTER_TIMEOUT) && !defined(RGB_DISABLE_TIMEOUT)
  66:quantum/rgb_matrix/rgb_matrix.c **** #    define RGB_DISABLE_TIMEOUT (RGB_DISABLE_AFTER_TIMEOUT * 1200UL)
  67:quantum/rgb_matrix/rgb_matrix.c **** #endif
  68:quantum/rgb_matrix/rgb_matrix.c **** 
  69:quantum/rgb_matrix/rgb_matrix.c **** #ifndef RGB_DISABLE_TIMEOUT
  70:quantum/rgb_matrix/rgb_matrix.c **** #    define RGB_DISABLE_TIMEOUT 0
  71:quantum/rgb_matrix/rgb_matrix.c **** #endif
  72:quantum/rgb_matrix/rgb_matrix.c **** 
  73:quantum/rgb_matrix/rgb_matrix.c **** #if !defined(RGB_MATRIX_MAXIMUM_BRIGHTNESS) || RGB_MATRIX_MAXIMUM_BRIGHTNESS > UINT8_MAX
  74:quantum/rgb_matrix/rgb_matrix.c **** #    undef RGB_MATRIX_MAXIMUM_BRIGHTNESS
  75:quantum/rgb_matrix/rgb_matrix.c **** #    define RGB_MATRIX_MAXIMUM_BRIGHTNESS UINT8_MAX
  76:quantum/rgb_matrix/rgb_matrix.c **** #endif
  77:quantum/rgb_matrix/rgb_matrix.c **** 
  78:quantum/rgb_matrix/rgb_matrix.c **** #if !defined(RGB_MATRIX_HUE_STEP)
  79:quantum/rgb_matrix/rgb_matrix.c **** #    define RGB_MATRIX_HUE_STEP 8
  80:quantum/rgb_matrix/rgb_matrix.c **** #endif
  81:quantum/rgb_matrix/rgb_matrix.c **** 
  82:quantum/rgb_matrix/rgb_matrix.c **** #if !defined(RGB_MATRIX_SAT_STEP)
  83:quantum/rgb_matrix/rgb_matrix.c **** #    define RGB_MATRIX_SAT_STEP 16
  84:quantum/rgb_matrix/rgb_matrix.c **** #endif
  85:quantum/rgb_matrix/rgb_matrix.c **** 
  86:quantum/rgb_matrix/rgb_matrix.c **** #if !defined(RGB_MATRIX_VAL_STEP)
  87:quantum/rgb_matrix/rgb_matrix.c **** #    define RGB_MATRIX_VAL_STEP 16
  88:quantum/rgb_matrix/rgb_matrix.c **** #endif
  89:quantum/rgb_matrix/rgb_matrix.c **** 
  90:quantum/rgb_matrix/rgb_matrix.c **** #if !defined(RGB_MATRIX_SPD_STEP)
  91:quantum/rgb_matrix/rgb_matrix.c **** #    define RGB_MATRIX_SPD_STEP 16
  92:quantum/rgb_matrix/rgb_matrix.c **** #endif
  93:quantum/rgb_matrix/rgb_matrix.c **** 
  94:quantum/rgb_matrix/rgb_matrix.c **** #if !defined(RGB_MATRIX_STARTUP_MODE)
  95:quantum/rgb_matrix/rgb_matrix.c **** #    ifndef DISABLE_RGB_MATRIX_CYCLE_LEFT_RIGHT
  96:quantum/rgb_matrix/rgb_matrix.c **** #        define RGB_MATRIX_STARTUP_MODE RGB_MATRIX_CYCLE_LEFT_RIGHT
  97:quantum/rgb_matrix/rgb_matrix.c **** #    else
  98:quantum/rgb_matrix/rgb_matrix.c **** // fallback to solid colors if RGB_MATRIX_CYCLE_LEFT_RIGHT is disabled in userspace
  99:quantum/rgb_matrix/rgb_matrix.c **** #        define RGB_MATRIX_STARTUP_MODE RGB_MATRIX_SOLID_COLOR
 100:quantum/rgb_matrix/rgb_matrix.c **** #    endif
 101:quantum/rgb_matrix/rgb_matrix.c **** #endif
 102:quantum/rgb_matrix/rgb_matrix.c **** 
 103:quantum/rgb_matrix/rgb_matrix.c **** #if !defined(RGB_MATRIX_STARTUP_HUE)
 104:quantum/rgb_matrix/rgb_matrix.c **** #    define RGB_MATRIX_STARTUP_HUE 0
 105:quantum/rgb_matrix/rgb_matrix.c **** #endif
 106:quantum/rgb_matrix/rgb_matrix.c **** 
 107:quantum/rgb_matrix/rgb_matrix.c **** #if !defined(RGB_MATRIX_STARTUP_SAT)
 108:quantum/rgb_matrix/rgb_matrix.c **** #    define RGB_MATRIX_STARTUP_SAT UINT8_MAX
 109:quantum/rgb_matrix/rgb_matrix.c **** #endif
 110:quantum/rgb_matrix/rgb_matrix.c **** 
 111:quantum/rgb_matrix/rgb_matrix.c **** #if !defined(RGB_MATRIX_STARTUP_VAL)
 112:quantum/rgb_matrix/rgb_matrix.c **** #    define RGB_MATRIX_STARTUP_VAL RGB_MATRIX_MAXIMUM_BRIGHTNESS
 113:quantum/rgb_matrix/rgb_matrix.c **** #endif
 114:quantum/rgb_matrix/rgb_matrix.c **** 
 115:quantum/rgb_matrix/rgb_matrix.c **** #if !defined(RGB_MATRIX_STARTUP_SPD)
 116:quantum/rgb_matrix/rgb_matrix.c **** #    define RGB_MATRIX_STARTUP_SPD UINT8_MAX / 2
 117:quantum/rgb_matrix/rgb_matrix.c **** #endif
 118:quantum/rgb_matrix/rgb_matrix.c **** 
 119:quantum/rgb_matrix/rgb_matrix.c **** // globals
 120:quantum/rgb_matrix/rgb_matrix.c **** rgb_config_t rgb_matrix_config;  // TODO: would like to prefix this with g_ for global consistancy,
 121:quantum/rgb_matrix/rgb_matrix.c **** uint32_t     g_rgb_timer;
 122:quantum/rgb_matrix/rgb_matrix.c **** #ifdef RGB_MATRIX_FRAMEBUFFER_EFFECTS
 123:quantum/rgb_matrix/rgb_matrix.c **** uint8_t g_rgb_frame_buffer[MATRIX_ROWS][MATRIX_COLS] = {{0}};
 124:quantum/rgb_matrix/rgb_matrix.c **** #endif  // RGB_MATRIX_FRAMEBUFFER_EFFECTS
 125:quantum/rgb_matrix/rgb_matrix.c **** #ifdef RGB_MATRIX_KEYREACTIVE_ENABLED
 126:quantum/rgb_matrix/rgb_matrix.c **** last_hit_t g_last_hit_tracker;
 127:quantum/rgb_matrix/rgb_matrix.c **** #endif  // RGB_MATRIX_KEYREACTIVE_ENABLED
 128:quantum/rgb_matrix/rgb_matrix.c **** 
 129:quantum/rgb_matrix/rgb_matrix.c **** // internals
 130:quantum/rgb_matrix/rgb_matrix.c **** static bool            suspend_state     = false;
 131:quantum/rgb_matrix/rgb_matrix.c **** static bool            rgb_update_eeprom = false;
 132:quantum/rgb_matrix/rgb_matrix.c **** static uint8_t         rgb_last_enable   = UINT8_MAX;
 133:quantum/rgb_matrix/rgb_matrix.c **** static uint8_t         rgb_last_effect   = UINT8_MAX;
 134:quantum/rgb_matrix/rgb_matrix.c **** static effect_params_t rgb_effect_params = {0, LED_FLAG_ALL, false};
 135:quantum/rgb_matrix/rgb_matrix.c **** static rgb_task_states rgb_task_state    = SYNCING;
 136:quantum/rgb_matrix/rgb_matrix.c **** #if RGB_DISABLE_TIMEOUT > 0
 137:quantum/rgb_matrix/rgb_matrix.c **** static uint32_t rgb_anykey_timer;
 138:quantum/rgb_matrix/rgb_matrix.c **** #endif  // RGB_DISABLE_TIMEOUT > 0
 139:quantum/rgb_matrix/rgb_matrix.c **** 
 140:quantum/rgb_matrix/rgb_matrix.c **** // double buffers
 141:quantum/rgb_matrix/rgb_matrix.c **** static uint32_t rgb_timer_buffer;
 142:quantum/rgb_matrix/rgb_matrix.c **** #ifdef RGB_MATRIX_KEYREACTIVE_ENABLED
 143:quantum/rgb_matrix/rgb_matrix.c **** static last_hit_t last_hit_buffer;
 144:quantum/rgb_matrix/rgb_matrix.c **** #endif  // RGB_MATRIX_KEYREACTIVE_ENABLED
 145:quantum/rgb_matrix/rgb_matrix.c **** 
 146:quantum/rgb_matrix/rgb_matrix.c **** // split rgb matrix
 147:quantum/rgb_matrix/rgb_matrix.c **** #if defined(RGB_MATRIX_ENABLE) && defined(RGB_MATRIX_SPLIT)
 148:quantum/rgb_matrix/rgb_matrix.c **** const uint8_t k_rgb_matrix_split[2] = RGB_MATRIX_SPLIT;
 149:quantum/rgb_matrix/rgb_matrix.c **** #endif
 150:quantum/rgb_matrix/rgb_matrix.c **** 
 151:quantum/rgb_matrix/rgb_matrix.c **** void eeconfig_read_rgb_matrix(void) { eeprom_read_block(&rgb_matrix_config, EECONFIG_RGB_MATRIX, si
 1870              		.loc 23 151 37 is_stmt 1 view -0
 1871              		.cfi_startproc
 1872              		@ args = 0, pretend = 0, frame = 0
 1873              		@ frame_needed = 0, uses_anonymous_args = 0
 1874              		@ link register save eliminated.
 1875              		.loc 23 151 39 view .LVU487
 1876 0000 0248     		ldr	r0, .L78
 1877 0002 0822     		movs	r2, #8
 1878 0004 1C21     		movs	r1, #28
 1879 0006 FFF7FEBF 		b	eeprom_read_block
 1880              	.LVL140:
 1881              	.L79:
 1882 000a 00BF     		.align	2
 1883              	.L78:
 1884 000c 00000000 		.word	rgb_matrix_config
 1885              		.cfi_endproc
 1886              	.LFE416:
 1888              		.section	.text.eeconfig_update_rgb_matrix,"ax",%progbits
 1889              		.align	1
 1890              		.global	eeconfig_update_rgb_matrix
 1891              		.syntax unified
 1892              		.thumb
 1893              		.thumb_func
 1894              		.fpu fpv4-sp-d16
 1896              	eeconfig_update_rgb_matrix:
 1897              	.LFB417:
 152:quantum/rgb_matrix/rgb_matrix.c **** 
 153:quantum/rgb_matrix/rgb_matrix.c **** void eeconfig_update_rgb_matrix(void) { eeprom_update_block(&rgb_matrix_config, EECONFIG_RGB_MATRIX
 1898              		.loc 23 153 39 view -0
 1899              		.cfi_startproc
 1900              		@ args = 0, pretend = 0, frame = 0
 1901              		@ frame_needed = 0, uses_anonymous_args = 0
 1902              		@ link register save eliminated.
 1903              		.loc 23 153 41 view .LVU489
 1904 0000 0248     		ldr	r0, .L81
 1905 0002 0822     		movs	r2, #8
 1906 0004 1C21     		movs	r1, #28
 1907 0006 FFF7FEBF 		b	eeprom_update_block
 1908              	.LVL141:
 1909              	.L82:
 1910 000a 00BF     		.align	2
 1911              	.L81:
 1912 000c 00000000 		.word	rgb_matrix_config
 1913              		.cfi_endproc
 1914              	.LFE417:
 1916              		.section	.text.eeconfig_update_rgb_matrix_default,"ax",%progbits
 1917              		.align	1
 1918              		.global	eeconfig_update_rgb_matrix_default
 1919              		.syntax unified
 1920              		.thumb
 1921              		.thumb_func
 1922              		.fpu fpv4-sp-d16
 1924              	eeconfig_update_rgb_matrix_default:
 1925              	.LFB418:
 154:quantum/rgb_matrix/rgb_matrix.c **** 
 155:quantum/rgb_matrix/rgb_matrix.c **** void eeconfig_update_rgb_matrix_default(void) {
 1926              		.loc 23 155 47 view -0
 1927              		.cfi_startproc
 1928              		@ args = 0, pretend = 0, frame = 0
 1929              		@ frame_needed = 0, uses_anonymous_args = 0
 1930              		@ link register save eliminated.
 156:quantum/rgb_matrix/rgb_matrix.c ****     dprintf("eeconfig_update_rgb_matrix_default\n");
 1931              		.loc 23 156 52 view .LVU491
 157:quantum/rgb_matrix/rgb_matrix.c ****     rgb_matrix_config.enable = 1;
 1932              		.loc 23 157 5 view .LVU492
 158:quantum/rgb_matrix/rgb_matrix.c ****     rgb_matrix_config.mode   = RGB_MATRIX_STARTUP_MODE;
 1933              		.loc 23 158 5 view .LVU493
 157:quantum/rgb_matrix/rgb_matrix.c ****     rgb_matrix_config.enable = 1;
 1934              		.loc 23 157 30 is_stmt 0 view .LVU494
 1935 0000 074B     		ldr	r3, .L84
 1936 0002 1A46     		mov	r2, r3
 1937 0004 0521     		movs	r1, #5
 1938 0006 02F8011B 		strb	r1, [r2], #1
 159:quantum/rgb_matrix/rgb_matrix.c ****     rgb_matrix_config.hsv    = (HSV){RGB_MATRIX_STARTUP_HUE, RGB_MATRIX_STARTUP_SAT, RGB_MATRIX_STA
 1939              		.loc 23 159 5 is_stmt 1 view .LVU495
 1940              		.loc 23 159 30 is_stmt 0 view .LVU496
 1941 000a 0649     		ldr	r1, .L84+4
 1942 000c 0888     		ldrh	r0, [r1]	@ unaligned
 1943 000e 8978     		ldrb	r1, [r1, #2]	@ zero_extendqisi2
 1944 0010 9170     		strb	r1, [r2, #2]
 160:quantum/rgb_matrix/rgb_matrix.c ****     rgb_matrix_config.speed  = RGB_MATRIX_STARTUP_SPD;
 1945              		.loc 23 160 5 is_stmt 1 view .LVU497
 161:quantum/rgb_matrix/rgb_matrix.c ****     rgb_matrix_config.flags  = LED_FLAG_ALL;
 1946              		.loc 23 161 5 view .LVU498
 160:quantum/rgb_matrix/rgb_matrix.c ****     rgb_matrix_config.speed  = RGB_MATRIX_STARTUP_SPD;
 1947              		.loc 23 160 30 is_stmt 0 view .LVU499
 1948 0012 4FF67F72 		movw	r2, #65407
 1949 0016 9A80     		strh	r2, [r3, #4]	@ movhi
 162:quantum/rgb_matrix/rgb_matrix.c ****     eeconfig_update_rgb_matrix();
 1950              		.loc 23 162 5 is_stmt 1 view .LVU500
 159:quantum/rgb_matrix/rgb_matrix.c ****     rgb_matrix_config.speed  = RGB_MATRIX_STARTUP_SPD;
 1951              		.loc 23 159 30 is_stmt 0 view .LVU501
 1952 0018 A3F80100 		strh	r0, [r3, #1]	@ unaligned
 1953              		.loc 23 162 5 view .LVU502
 1954 001c FFF7FEBF 		b	eeconfig_update_rgb_matrix
 1955              	.LVL142:
 1956              	.L85:
 1957              		.align	2
 1958              	.L84:
 1959 0020 00000000 		.word	rgb_matrix_config
 1960 0024 00000000 		.word	.LANCHOR1
 1961              		.cfi_endproc
 1962              	.LFE418:
 1964              		.section	.text.eeconfig_debug_rgb_matrix,"ax",%progbits
 1965              		.align	1
 1966              		.global	eeconfig_debug_rgb_matrix
 1967              		.syntax unified
 1968              		.thumb
 1969              		.thumb_func
 1970              		.fpu fpv4-sp-d16
 1972              	eeconfig_debug_rgb_matrix:
 1973              	.LFB419:
 163:quantum/rgb_matrix/rgb_matrix.c **** }
 164:quantum/rgb_matrix/rgb_matrix.c **** 
 165:quantum/rgb_matrix/rgb_matrix.c **** void eeconfig_debug_rgb_matrix(void) {
 1974              		.loc 23 165 38 is_stmt 1 view -0
 1975              		.cfi_startproc
 1976              		@ args = 0, pretend = 0, frame = 0
 1977              		@ frame_needed = 0, uses_anonymous_args = 0
 1978              		@ link register save eliminated.
 166:quantum/rgb_matrix/rgb_matrix.c ****     dprintf("rgb_matrix_config EEPROM\n");
 1979              		.loc 23 166 42 view .LVU504
 167:quantum/rgb_matrix/rgb_matrix.c ****     dprintf("rgb_matrix_config.enable = %d\n", rgb_matrix_config.enable);
 1980              		.loc 23 167 73 view .LVU505
 168:quantum/rgb_matrix/rgb_matrix.c ****     dprintf("rgb_matrix_config.mode = %d\n", rgb_matrix_config.mode);
 1981              		.loc 23 168 69 view .LVU506
 169:quantum/rgb_matrix/rgb_matrix.c ****     dprintf("rgb_matrix_config.hsv.h = %d\n", rgb_matrix_config.hsv.h);
 1982              		.loc 23 169 71 view .LVU507
 170:quantum/rgb_matrix/rgb_matrix.c ****     dprintf("rgb_matrix_config.hsv.s = %d\n", rgb_matrix_config.hsv.s);
 1983              		.loc 23 170 71 view .LVU508
 171:quantum/rgb_matrix/rgb_matrix.c ****     dprintf("rgb_matrix_config.hsv.v = %d\n", rgb_matrix_config.hsv.v);
 1984              		.loc 23 171 71 view .LVU509
 172:quantum/rgb_matrix/rgb_matrix.c ****     dprintf("rgb_matrix_config.speed = %d\n", rgb_matrix_config.speed);
 1985              		.loc 23 172 71 view .LVU510
 173:quantum/rgb_matrix/rgb_matrix.c ****     dprintf("rgb_matrix_config.flags = %d\n", rgb_matrix_config.flags);
 1986              		.loc 23 173 71 view .LVU511
 174:quantum/rgb_matrix/rgb_matrix.c **** }
 1987              		.loc 23 174 1 is_stmt 0 view .LVU512
 1988 0000 7047     		bx	lr
 1989              		.cfi_endproc
 1990              	.LFE419:
 1992              		.section	.text.rgb_matrix_map_row_column_to_led_kb,"ax",%progbits
 1993              		.align	1
 1994              		.weak	rgb_matrix_map_row_column_to_led_kb
 1995              		.syntax unified
 1996              		.thumb
 1997              		.thumb_func
 1998              		.fpu fpv4-sp-d16
 2000              	rgb_matrix_map_row_column_to_led_kb:
 2001              	.LVL143:
 2002              	.LFB420:
 175:quantum/rgb_matrix/rgb_matrix.c **** 
 176:quantum/rgb_matrix/rgb_matrix.c **** __attribute__((weak)) uint8_t rgb_matrix_map_row_column_to_led_kb(uint8_t row, uint8_t column, uint
 2003              		.loc 23 176 112 is_stmt 1 view -0
 2004              		.cfi_startproc
 2005              		@ args = 0, pretend = 0, frame = 0
 2006              		@ frame_needed = 0, uses_anonymous_args = 0
 2007              		@ link register save eliminated.
 2008              		.loc 23 176 114 view .LVU514
 2009              		.loc 23 176 124 is_stmt 0 view .LVU515
 2010 0000 0020     		movs	r0, #0
 2011              	.LVL144:
 2012              		.loc 23 176 124 view .LVU516
 2013 0002 7047     		bx	lr
 2014              		.cfi_endproc
 2015              	.LFE420:
 2017              		.section	.text.rgb_matrix_map_row_column_to_led,"ax",%progbits
 2018              		.align	1
 2019              		.global	rgb_matrix_map_row_column_to_led
 2020              		.syntax unified
 2021              		.thumb
 2022              		.thumb_func
 2023              		.fpu fpv4-sp-d16
 2025              	rgb_matrix_map_row_column_to_led:
 2026              	.LVL145:
 2027              	.LFB421:
 177:quantum/rgb_matrix/rgb_matrix.c **** 
 178:quantum/rgb_matrix/rgb_matrix.c **** uint8_t rgb_matrix_map_row_column_to_led(uint8_t row, uint8_t column, uint8_t *led_i) {
 2028              		.loc 23 178 87 is_stmt 1 view -0
 2029              		.cfi_startproc
 2030              		@ args = 0, pretend = 0, frame = 0
 2031              		@ frame_needed = 0, uses_anonymous_args = 0
 179:quantum/rgb_matrix/rgb_matrix.c ****     uint8_t led_count = rgb_matrix_map_row_column_to_led_kb(row, column, led_i);
 2032              		.loc 23 179 5 view .LVU518
 178:quantum/rgb_matrix/rgb_matrix.c ****     uint8_t led_count = rgb_matrix_map_row_column_to_led_kb(row, column, led_i);
 2033              		.loc 23 178 87 is_stmt 0 view .LVU519
 2034 0000 70B5     		push	{r4, r5, r6, lr}
 2035              		.cfi_def_cfa_offset 16
 2036              		.cfi_offset 4, -16
 2037              		.cfi_offset 5, -12
 2038              		.cfi_offset 6, -8
 2039              		.cfi_offset 14, -4
 178:quantum/rgb_matrix/rgb_matrix.c ****     uint8_t led_count = rgb_matrix_map_row_column_to_led_kb(row, column, led_i);
 2040              		.loc 23 178 87 view .LVU520
 2041 0002 0646     		mov	r6, r0
 2042 0004 0D46     		mov	r5, r1
 2043 0006 1446     		mov	r4, r2
 2044              		.loc 23 179 25 view .LVU521
 2045 0008 FFF7FEFF 		bl	rgb_matrix_map_row_column_to_led_kb
 2046              	.LVL146:
 180:quantum/rgb_matrix/rgb_matrix.c ****     uint8_t led_index = g_led_config.matrix_co[row][column];
 2047              		.loc 23 180 5 is_stmt 1 view .LVU522
 2048              		.loc 23 180 13 is_stmt 0 view .LVU523
 2049 000c 044B     		ldr	r3, .L93
 2050 000e 03EBC603 		add	r3, r3, r6, lsl #3
 2051 0012 5B5D     		ldrb	r3, [r3, r5]	@ zero_extendqisi2
 2052              	.LVL147:
 181:quantum/rgb_matrix/rgb_matrix.c ****     if (led_index != NO_LED) {
 2053              		.loc 23 181 5 is_stmt 1 view .LVU524
 2054              		.loc 23 181 8 is_stmt 0 view .LVU525
 2055 0014 FF2B     		cmp	r3, #255
 182:quantum/rgb_matrix/rgb_matrix.c ****         led_i[led_count] = led_index;
 2056              		.loc 23 182 9 is_stmt 1 view .LVU526
 2057              		.loc 23 182 26 is_stmt 0 view .LVU527
 2058 0016 1EBF     		ittt	ne
 2059 0018 2354     		strbne	r3, [r4, r0]
 183:quantum/rgb_matrix/rgb_matrix.c ****         led_count++;
 2060              		.loc 23 183 9 is_stmt 1 view .LVU528
 2061              		.loc 23 183 18 is_stmt 0 view .LVU529
 2062 001a 0130     		addne	r0, r0, #1
 2063              	.LVL148:
 2064              		.loc 23 183 18 view .LVU530
 2065 001c C0B2     		uxtbne	r0, r0
 2066              	.LVL149:
 184:quantum/rgb_matrix/rgb_matrix.c ****     }
 185:quantum/rgb_matrix/rgb_matrix.c ****     return led_count;
 2067              		.loc 23 185 5 is_stmt 1 view .LVU531
 186:quantum/rgb_matrix/rgb_matrix.c **** }
 2068              		.loc 23 186 1 is_stmt 0 view .LVU532
 2069 001e 70BD     		pop	{r4, r5, r6, pc}
 2070              	.LVL150:
 2071              	.L94:
 2072              		.loc 23 186 1 view .LVU533
 2073              		.align	2
 2074              	.L93:
 2075 0020 00000000 		.word	g_led_config
 2076              		.cfi_endproc
 2077              	.LFE421:
 2079              		.section	.text.rgb_matrix_update_pwm_buffers,"ax",%progbits
 2080              		.align	1
 2081              		.global	rgb_matrix_update_pwm_buffers
 2082              		.syntax unified
 2083              		.thumb
 2084              		.thumb_func
 2085              		.fpu fpv4-sp-d16
 2087              	rgb_matrix_update_pwm_buffers:
 2088              	.LFB422:
 187:quantum/rgb_matrix/rgb_matrix.c **** 
 188:quantum/rgb_matrix/rgb_matrix.c **** void rgb_matrix_update_pwm_buffers(void) { rgb_matrix_driver.flush(); }
 2089              		.loc 23 188 42 is_stmt 1 view -0
 2090              		.cfi_startproc
 2091              		@ args = 0, pretend = 0, frame = 0
 2092              		@ frame_needed = 0, uses_anonymous_args = 0
 2093              		@ link register save eliminated.
 2094              		.loc 23 188 44 view .LVU535
 2095              		.loc 23 188 61 is_stmt 0 view .LVU536
 2096 0000 014B     		ldr	r3, .L96
 2097              		.loc 23 188 44 view .LVU537
 2098 0002 DB68     		ldr	r3, [r3, #12]
 2099 0004 1847     		bx	r3	@ indirect register sibling call
 2100              	.LVL151:
 2101              	.L97:
 2102 0006 00BF     		.align	2
 2103              	.L96:
 2104 0008 00000000 		.word	rgb_matrix_driver
 2105              		.cfi_endproc
 2106              	.LFE422:
 2108              		.section	.text.rgb_matrix_set_color,"ax",%progbits
 2109              		.align	1
 2110              		.global	rgb_matrix_set_color
 2111              		.syntax unified
 2112              		.thumb
 2113              		.thumb_func
 2114              		.fpu fpv4-sp-d16
 2116              	rgb_matrix_set_color:
 2117              	.LVL152:
 2118              	.LFB423:
 189:quantum/rgb_matrix/rgb_matrix.c **** 
 190:quantum/rgb_matrix/rgb_matrix.c **** void rgb_matrix_set_color(int index, uint8_t red, uint8_t green, uint8_t blue) {
 2119              		.loc 23 190 80 is_stmt 1 view -0
 2120              		.cfi_startproc
 2121              		@ args = 0, pretend = 0, frame = 0
 2122              		@ frame_needed = 0, uses_anonymous_args = 0
 2123              		@ link register save eliminated.
 191:quantum/rgb_matrix/rgb_matrix.c **** #if defined(RGB_MATRIX_ENABLE) && defined(RGB_MATRIX_SPLIT)
 192:quantum/rgb_matrix/rgb_matrix.c ****     if (!is_keyboard_left() && index >= k_rgb_matrix_split[0])
 193:quantum/rgb_matrix/rgb_matrix.c ****         rgb_matrix_driver.set_color(index - k_rgb_matrix_split[0], red, green, blue);
 194:quantum/rgb_matrix/rgb_matrix.c ****     else if (is_keyboard_left() && index < k_rgb_matrix_split[0])
 195:quantum/rgb_matrix/rgb_matrix.c **** #endif
 196:quantum/rgb_matrix/rgb_matrix.c ****         rgb_matrix_driver.set_color(index, red, green, blue);
 2124              		.loc 23 196 9 view .LVU539
 190:quantum/rgb_matrix/rgb_matrix.c **** #if defined(RGB_MATRIX_ENABLE) && defined(RGB_MATRIX_SPLIT)
 2125              		.loc 23 190 80 is_stmt 0 view .LVU540
 2126 0000 10B4     		push	{r4}
 2127              		.cfi_def_cfa_offset 4
 2128              		.cfi_offset 4, -4
 2129              		.loc 23 196 26 view .LVU541
 2130 0002 034C     		ldr	r4, .L99
 2131              		.loc 23 196 9 view .LVU542
 2132 0004 6468     		ldr	r4, [r4, #4]
 2133 0006 A446     		mov	ip, r4
 197:quantum/rgb_matrix/rgb_matrix.c **** }
 2134              		.loc 23 197 1 view .LVU543
 2135 0008 5DF8044B 		ldr	r4, [sp], #4
 2136              		.cfi_restore 4
 2137              		.cfi_def_cfa_offset 0
 196:quantum/rgb_matrix/rgb_matrix.c **** }
 2138              		.loc 23 196 9 view .LVU544
 2139 000c 6047     		bx	ip	@ indirect register sibling call
 2140              	.LVL153:
 2141              	.L100:
 196:quantum/rgb_matrix/rgb_matrix.c **** }
 2142              		.loc 23 196 9 view .LVU545
 2143 000e 00BF     		.align	2
 2144              	.L99:
 2145 0010 00000000 		.word	rgb_matrix_driver
 2146              		.cfi_endproc
 2147              	.LFE423:
 2149              		.section	.text.effect_runner_dx_dy_dist,"ax",%progbits
 2150              		.align	1
 2151              		.global	effect_runner_dx_dy_dist
 2152              		.syntax unified
 2153              		.thumb
 2154              		.thumb_func
 2155              		.fpu fpv4-sp-d16
 2157              	effect_runner_dx_dy_dist:
 2158              	.LVL154:
 2159              	.LFB364:
 2160              		.file 24 "quantum/rgb_matrix/animations/runners/effect_runner_dx_dy_dist.h"
   1:quantum/rgb_matrix/animations/runners/effect_runner_dx_dy_dist.h **** #pragma once
   2:quantum/rgb_matrix/animations/runners/effect_runner_dx_dy_dist.h **** 
   3:quantum/rgb_matrix/animations/runners/effect_runner_dx_dy_dist.h **** typedef HSV (*dx_dy_dist_f)(HSV hsv, int16_t dx, int16_t dy, uint8_t dist, uint8_t time);
   4:quantum/rgb_matrix/animations/runners/effect_runner_dx_dy_dist.h **** 
   5:quantum/rgb_matrix/animations/runners/effect_runner_dx_dy_dist.h **** bool effect_runner_dx_dy_dist(effect_params_t* params, dx_dy_dist_f effect_func) {
 2161              		.loc 24 5 82 is_stmt 1 view -0
 2162              		.cfi_startproc
 2163              		@ args = 0, pretend = 0, frame = 24
 2164              		@ frame_needed = 0, uses_anonymous_args = 0
   6:quantum/rgb_matrix/animations/runners/effect_runner_dx_dy_dist.h ****     RGB_MATRIX_USE_LIMITS(led_min, led_max);
 2165              		.loc 24 6 5 view .LVU547
   5:quantum/rgb_matrix/animations/runners/effect_runner_dx_dy_dist.h ****     RGB_MATRIX_USE_LIMITS(led_min, led_max);
 2166              		.loc 24 5 82 is_stmt 0 view .LVU548
 2167 0000 2DE9F04F 		push	{r4, r5, r6, r7, r8, r9, r10, fp, lr}
 2168              		.cfi_def_cfa_offset 36
 2169              		.cfi_offset 4, -36
 2170              		.cfi_offset 5, -32
 2171              		.cfi_offset 6, -28
 2172              		.cfi_offset 7, -24
 2173              		.cfi_offset 8, -20
 2174              		.cfi_offset 9, -16
 2175              		.cfi_offset 10, -12
 2176              		.cfi_offset 11, -8
 2177              		.cfi_offset 14, -4
   7:quantum/rgb_matrix/animations/runners/effect_runner_dx_dy_dist.h **** 
   8:quantum/rgb_matrix/animations/runners/effect_runner_dx_dy_dist.h ****     uint8_t time = scale16by8(g_rgb_timer, rgb_matrix_config.speed / 2);
 2178              		.loc 24 8 61 view .LVU549
 2179 0004 DFF8DC90 		ldr	r9, .L106+8
   6:quantum/rgb_matrix/animations/runners/effect_runner_dx_dy_dist.h **** 
 2180              		.loc 24 6 5 view .LVU550
 2181 0008 0478     		ldrb	r4, [r0]	@ zero_extendqisi2
 2182              	.LBB168:
 2183              	.LBB169:
  27:./lib/lib8tion/scale8.h **** #endif
  28:./lib/lib8tion/scale8.h **** #elif SCALE8_AVRASM == 1
  29:./lib/lib8tion/scale8.h **** #if defined(LIB8_ATTINY)
  30:./lib/lib8tion/scale8.h **** #if (FASTLED_SCALE8_FIXED == 1)
  31:./lib/lib8tion/scale8.h ****     uint8_t work=i;
  32:./lib/lib8tion/scale8.h **** #else
  33:./lib/lib8tion/scale8.h ****     uint8_t work=0;
  34:./lib/lib8tion/scale8.h **** #endif
  35:./lib/lib8tion/scale8.h ****     uint8_t cnt=0x80;
  36:./lib/lib8tion/scale8.h ****     asm volatile(
  37:./lib/lib8tion/scale8.h **** #if (FASTLED_SCALE8_FIXED == 1)
  38:./lib/lib8tion/scale8.h ****         "  inc %[scale]                 \n\t"
  39:./lib/lib8tion/scale8.h ****         "  breq DONE_%=                 \n\t"
  40:./lib/lib8tion/scale8.h ****         "  clr %[work]                  \n\t"
  41:./lib/lib8tion/scale8.h **** #endif
  42:./lib/lib8tion/scale8.h ****         "LOOP_%=:                       \n\t"
  43:./lib/lib8tion/scale8.h ****         /*"  sbrc %[scale], 0             \n\t"
  44:./lib/lib8tion/scale8.h ****         "  add %[work], %[i]            \n\t"
  45:./lib/lib8tion/scale8.h ****         "  ror %[work]                  \n\t"
  46:./lib/lib8tion/scale8.h ****         "  lsr %[scale]                 \n\t"
  47:./lib/lib8tion/scale8.h ****         "  clc                          \n\t"*/
  48:./lib/lib8tion/scale8.h ****         "  sbrc %[scale], 0             \n\t"
  49:./lib/lib8tion/scale8.h ****         "  add %[work], %[i]            \n\t"
  50:./lib/lib8tion/scale8.h ****         "  ror %[work]                  \n\t"
  51:./lib/lib8tion/scale8.h ****         "  lsr %[scale]                 \n\t"
  52:./lib/lib8tion/scale8.h ****         "  lsr %[cnt]                   \n\t"
  53:./lib/lib8tion/scale8.h ****         "brcc LOOP_%=                   \n\t"
  54:./lib/lib8tion/scale8.h ****         "DONE_%=:                       \n\t"
  55:./lib/lib8tion/scale8.h ****         : [work] "+r" (work), [cnt] "+r" (cnt)
  56:./lib/lib8tion/scale8.h ****         : [scale] "r" (scale), [i] "r" (i)
  57:./lib/lib8tion/scale8.h ****         :
  58:./lib/lib8tion/scale8.h ****       );
  59:./lib/lib8tion/scale8.h ****     return work;
  60:./lib/lib8tion/scale8.h **** #else
  61:./lib/lib8tion/scale8.h ****     asm volatile(
  62:./lib/lib8tion/scale8.h **** #if (FASTLED_SCALE8_FIXED==1)
  63:./lib/lib8tion/scale8.h ****         // Multiply 8-bit i * 8-bit scale, giving 16-bit r1,r0
  64:./lib/lib8tion/scale8.h ****         "mul %0, %1          \n\t"
  65:./lib/lib8tion/scale8.h ****         // Add i to r0, possibly setting the carry flag
  66:./lib/lib8tion/scale8.h ****         "add r0, %0         \n\t"
  67:./lib/lib8tion/scale8.h ****         // load the immediate 0 into i (note, this does _not_ touch any flags)
  68:./lib/lib8tion/scale8.h ****         "ldi %0, 0x00       \n\t"
  69:./lib/lib8tion/scale8.h ****         // walk and chew gum at the same time
  70:./lib/lib8tion/scale8.h ****         "adc %0, r1          \n\t"
  71:./lib/lib8tion/scale8.h **** #else
  72:./lib/lib8tion/scale8.h ****          /* Multiply 8-bit i * 8-bit scale, giving 16-bit r1,r0 */
  73:./lib/lib8tion/scale8.h ****          "mul %0, %1          \n\t"
  74:./lib/lib8tion/scale8.h ****          /* Move the high 8-bits of the product (r1) back to i */
  75:./lib/lib8tion/scale8.h ****          "mov %0, r1          \n\t"
  76:./lib/lib8tion/scale8.h ****          /* Restore r1 to "0"; it's expected to always be that */
  77:./lib/lib8tion/scale8.h **** #endif
  78:./lib/lib8tion/scale8.h ****          "clr __zero_reg__    \n\t"
  79:./lib/lib8tion/scale8.h **** 
  80:./lib/lib8tion/scale8.h ****          : "+a" (i)      /* writes to i */
  81:./lib/lib8tion/scale8.h ****          : "a"  (scale)  /* uses scale */
  82:./lib/lib8tion/scale8.h ****          : "r0", "r1"    /* clobbers r0, r1 */ );
  83:./lib/lib8tion/scale8.h **** 
  84:./lib/lib8tion/scale8.h ****     /* Return the result */
  85:./lib/lib8tion/scale8.h ****     return i;
  86:./lib/lib8tion/scale8.h **** #endif
  87:./lib/lib8tion/scale8.h **** #else
  88:./lib/lib8tion/scale8.h **** #error "No implementation for scale8 available."
  89:./lib/lib8tion/scale8.h **** #endif
  90:./lib/lib8tion/scale8.h **** }
  91:./lib/lib8tion/scale8.h **** 
  92:./lib/lib8tion/scale8.h **** 
  93:./lib/lib8tion/scale8.h **** ///  The "video" version of scale8 guarantees that the output will
  94:./lib/lib8tion/scale8.h **** ///  be only be zero if one or both of the inputs are zero.  If both
  95:./lib/lib8tion/scale8.h **** ///  inputs are non-zero, the output is guaranteed to be non-zero.
  96:./lib/lib8tion/scale8.h **** ///  This makes for better 'video'/LED dimming, at the cost of
  97:./lib/lib8tion/scale8.h **** ///  several additional cycles.
  98:./lib/lib8tion/scale8.h **** LIB8STATIC_ALWAYS_INLINE uint8_t scale8_video( uint8_t i, fract8 scale)
  99:./lib/lib8tion/scale8.h **** {
 100:./lib/lib8tion/scale8.h **** #if SCALE8_C == 1 || defined(LIB8_ATTINY)
 101:./lib/lib8tion/scale8.h ****     uint8_t j = (((int)i * (int)scale) >> 8) + ((i&&scale)?1:0);
 102:./lib/lib8tion/scale8.h ****     // uint8_t nonzeroscale = (scale != 0) ? 1 : 0;
 103:./lib/lib8tion/scale8.h ****     // uint8_t j = (i == 0) ? 0 : (((int)i * (int)(scale) ) >> 8) + nonzeroscale;
 104:./lib/lib8tion/scale8.h ****     return j;
 105:./lib/lib8tion/scale8.h **** #elif SCALE8_AVRASM == 1
 106:./lib/lib8tion/scale8.h ****     uint8_t j=0;
 107:./lib/lib8tion/scale8.h ****     asm volatile(
 108:./lib/lib8tion/scale8.h ****         "  tst %[i]\n\t"
 109:./lib/lib8tion/scale8.h ****         "  breq L_%=\n\t"
 110:./lib/lib8tion/scale8.h ****         "  mul %[i], %[scale]\n\t"
 111:./lib/lib8tion/scale8.h ****         "  mov %[j], r1\n\t"
 112:./lib/lib8tion/scale8.h ****         "  clr __zero_reg__\n\t"
 113:./lib/lib8tion/scale8.h ****         "  cpse %[scale], r1\n\t"
 114:./lib/lib8tion/scale8.h ****         "  subi %[j], 0xFF\n\t"
 115:./lib/lib8tion/scale8.h ****         "L_%=: \n\t"
 116:./lib/lib8tion/scale8.h ****         : [j] "+a" (j)
 117:./lib/lib8tion/scale8.h ****         : [i] "a" (i), [scale] "a" (scale)
 118:./lib/lib8tion/scale8.h ****         : "r0", "r1");
 119:./lib/lib8tion/scale8.h **** 
 120:./lib/lib8tion/scale8.h ****     return j;
 121:./lib/lib8tion/scale8.h ****     // uint8_t nonzeroscale = (scale != 0) ? 1 : 0;
 122:./lib/lib8tion/scale8.h ****     // asm volatile(
 123:./lib/lib8tion/scale8.h ****     //      "      tst %0           \n"
 124:./lib/lib8tion/scale8.h ****     //      "      breq L_%=        \n"
 125:./lib/lib8tion/scale8.h ****     //      "      mul %0, %1       \n"
 126:./lib/lib8tion/scale8.h ****     //      "      mov %0, r1       \n"
 127:./lib/lib8tion/scale8.h ****     //      "      add %0, %2       \n"
 128:./lib/lib8tion/scale8.h ****     //      "      clr __zero_reg__ \n"
 129:./lib/lib8tion/scale8.h ****     //      "L_%=:                  \n"
 130:./lib/lib8tion/scale8.h **** 
 131:./lib/lib8tion/scale8.h ****     //      : "+a" (i)
 132:./lib/lib8tion/scale8.h ****     //      : "a" (scale), "a" (nonzeroscale)
 133:./lib/lib8tion/scale8.h ****     //      : "r0", "r1");
 134:./lib/lib8tion/scale8.h **** 
 135:./lib/lib8tion/scale8.h ****     // // Return the result
 136:./lib/lib8tion/scale8.h ****     // return i;
 137:./lib/lib8tion/scale8.h **** #else
 138:./lib/lib8tion/scale8.h **** #error "No implementation for scale8_video available."
 139:./lib/lib8tion/scale8.h **** #endif
 140:./lib/lib8tion/scale8.h **** }
 141:./lib/lib8tion/scale8.h **** 
 142:./lib/lib8tion/scale8.h **** 
 143:./lib/lib8tion/scale8.h **** /// This version of scale8 does not clean up the R1 register on AVR
 144:./lib/lib8tion/scale8.h **** /// If you are doing several 'scale8's in a row, use this, and
 145:./lib/lib8tion/scale8.h **** /// then explicitly call cleanup_R1.
 146:./lib/lib8tion/scale8.h **** LIB8STATIC_ALWAYS_INLINE uint8_t scale8_LEAVING_R1_DIRTY( uint8_t i, fract8 scale)
 147:./lib/lib8tion/scale8.h **** {
 148:./lib/lib8tion/scale8.h **** #if SCALE8_C == 1
 149:./lib/lib8tion/scale8.h **** #if (FASTLED_SCALE8_FIXED == 1)
 150:./lib/lib8tion/scale8.h ****     return (((uint16_t)i) * ((uint16_t)(scale)+1)) >> 8;
 151:./lib/lib8tion/scale8.h **** #else
 152:./lib/lib8tion/scale8.h ****     return ((int)i * (int)(scale) ) >> 8;
 153:./lib/lib8tion/scale8.h **** #endif
 154:./lib/lib8tion/scale8.h **** #elif SCALE8_AVRASM == 1
 155:./lib/lib8tion/scale8.h ****     asm volatile(
 156:./lib/lib8tion/scale8.h ****       #if (FASTLED_SCALE8_FIXED==1)
 157:./lib/lib8tion/scale8.h ****               // Multiply 8-bit i * 8-bit scale, giving 16-bit r1,r0
 158:./lib/lib8tion/scale8.h ****               "mul %0, %1          \n\t"
 159:./lib/lib8tion/scale8.h ****               // Add i to r0, possibly setting the carry flag
 160:./lib/lib8tion/scale8.h ****               "add r0, %0         \n\t"
 161:./lib/lib8tion/scale8.h ****               // load the immediate 0 into i (note, this does _not_ touch any flags)
 162:./lib/lib8tion/scale8.h ****               "ldi %0, 0x00       \n\t"
 163:./lib/lib8tion/scale8.h ****               // walk and chew gum at the same time
 164:./lib/lib8tion/scale8.h ****               "adc %0, r1          \n\t"
 165:./lib/lib8tion/scale8.h ****       #else
 166:./lib/lib8tion/scale8.h ****          /* Multiply 8-bit i * 8-bit scale, giving 16-bit r1,r0 */
 167:./lib/lib8tion/scale8.h ****          "mul %0, %1    \n\t"
 168:./lib/lib8tion/scale8.h ****          /* Move the high 8-bits of the product (r1) back to i */
 169:./lib/lib8tion/scale8.h ****          "mov %0, r1    \n\t"
 170:./lib/lib8tion/scale8.h ****       #endif
 171:./lib/lib8tion/scale8.h ****          /* R1 IS LEFT DIRTY HERE; YOU MUST ZERO IT OUT YOURSELF  */
 172:./lib/lib8tion/scale8.h ****          /* "clr __zero_reg__    \n\t" */
 173:./lib/lib8tion/scale8.h **** 
 174:./lib/lib8tion/scale8.h ****          : "+a" (i)      /* writes to i */
 175:./lib/lib8tion/scale8.h ****          : "a"  (scale)  /* uses scale */
 176:./lib/lib8tion/scale8.h ****          : "r0", "r1"    /* clobbers r0, r1 */ );
 177:./lib/lib8tion/scale8.h **** 
 178:./lib/lib8tion/scale8.h ****     // Return the result
 179:./lib/lib8tion/scale8.h ****     return i;
 180:./lib/lib8tion/scale8.h **** #else
 181:./lib/lib8tion/scale8.h **** #error "No implementation for scale8_LEAVING_R1_DIRTY available."
 182:./lib/lib8tion/scale8.h **** #endif
 183:./lib/lib8tion/scale8.h **** }
 184:./lib/lib8tion/scale8.h **** 
 185:./lib/lib8tion/scale8.h **** 
 186:./lib/lib8tion/scale8.h **** /// This version of scale8_video does not clean up the R1 register on AVR
 187:./lib/lib8tion/scale8.h **** /// If you are doing several 'scale8_video's in a row, use this, and
 188:./lib/lib8tion/scale8.h **** /// then explicitly call cleanup_R1.
 189:./lib/lib8tion/scale8.h **** LIB8STATIC_ALWAYS_INLINE uint8_t scale8_video_LEAVING_R1_DIRTY( uint8_t i, fract8 scale)
 190:./lib/lib8tion/scale8.h **** {
 191:./lib/lib8tion/scale8.h **** #if SCALE8_C == 1 || defined(LIB8_ATTINY)
 192:./lib/lib8tion/scale8.h ****     uint8_t j = (((int)i * (int)scale) >> 8) + ((i&&scale)?1:0);
 193:./lib/lib8tion/scale8.h ****     // uint8_t nonzeroscale = (scale != 0) ? 1 : 0;
 194:./lib/lib8tion/scale8.h ****     // uint8_t j = (i == 0) ? 0 : (((int)i * (int)(scale) ) >> 8) + nonzeroscale;
 195:./lib/lib8tion/scale8.h ****     return j;
 196:./lib/lib8tion/scale8.h **** #elif SCALE8_AVRASM == 1
 197:./lib/lib8tion/scale8.h ****     uint8_t j=0;
 198:./lib/lib8tion/scale8.h ****     asm volatile(
 199:./lib/lib8tion/scale8.h ****         "  tst %[i]\n\t"
 200:./lib/lib8tion/scale8.h ****         "  breq L_%=\n\t"
 201:./lib/lib8tion/scale8.h ****         "  mul %[i], %[scale]\n\t"
 202:./lib/lib8tion/scale8.h ****         "  mov %[j], r1\n\t"
 203:./lib/lib8tion/scale8.h ****         "  breq L_%=\n\t"
 204:./lib/lib8tion/scale8.h ****         "  subi %[j], 0xFF\n\t"
 205:./lib/lib8tion/scale8.h ****         "L_%=: \n\t"
 206:./lib/lib8tion/scale8.h ****         : [j] "+a" (j)
 207:./lib/lib8tion/scale8.h ****         : [i] "a" (i), [scale] "a" (scale)
 208:./lib/lib8tion/scale8.h ****         : "r0", "r1");
 209:./lib/lib8tion/scale8.h **** 
 210:./lib/lib8tion/scale8.h ****     return j;
 211:./lib/lib8tion/scale8.h ****     // uint8_t nonzeroscale = (scale != 0) ? 1 : 0;
 212:./lib/lib8tion/scale8.h ****     // asm volatile(
 213:./lib/lib8tion/scale8.h ****     //      "      tst %0           \n"
 214:./lib/lib8tion/scale8.h ****     //      "      breq L_%=        \n"
 215:./lib/lib8tion/scale8.h ****     //      "      mul %0, %1       \n"
 216:./lib/lib8tion/scale8.h ****     //      "      mov %0, r1       \n"
 217:./lib/lib8tion/scale8.h ****     //      "      add %0, %2       \n"
 218:./lib/lib8tion/scale8.h ****     //      "      clr __zero_reg__ \n"
 219:./lib/lib8tion/scale8.h ****     //      "L_%=:                  \n"
 220:./lib/lib8tion/scale8.h **** 
 221:./lib/lib8tion/scale8.h ****     //      : "+a" (i)
 222:./lib/lib8tion/scale8.h ****     //      : "a" (scale), "a" (nonzeroscale)
 223:./lib/lib8tion/scale8.h ****     //      : "r0", "r1");
 224:./lib/lib8tion/scale8.h **** 
 225:./lib/lib8tion/scale8.h ****     // // Return the result
 226:./lib/lib8tion/scale8.h ****     // return i;
 227:./lib/lib8tion/scale8.h **** #else
 228:./lib/lib8tion/scale8.h **** #error "No implementation for scale8_video_LEAVING_R1_DIRTY available."
 229:./lib/lib8tion/scale8.h **** #endif
 230:./lib/lib8tion/scale8.h **** }
 231:./lib/lib8tion/scale8.h **** 
 232:./lib/lib8tion/scale8.h **** /// Clean up the r1 register after a series of *LEAVING_R1_DIRTY calls
 233:./lib/lib8tion/scale8.h **** LIB8STATIC_ALWAYS_INLINE void cleanup_R1(void)
 234:./lib/lib8tion/scale8.h **** {
 235:./lib/lib8tion/scale8.h **** #if CLEANUP_R1_AVRASM == 1
 236:./lib/lib8tion/scale8.h ****     // Restore r1 to "0"; it's expected to always be that
 237:./lib/lib8tion/scale8.h ****     asm volatile( "clr __zero_reg__  \n\t" : : : "r1" );
 238:./lib/lib8tion/scale8.h **** #endif
 239:./lib/lib8tion/scale8.h **** }
 240:./lib/lib8tion/scale8.h **** 
 241:./lib/lib8tion/scale8.h **** 
 242:./lib/lib8tion/scale8.h **** /// scale a 16-bit unsigned value by an 8-bit value,
 243:./lib/lib8tion/scale8.h **** ///         considered as numerator of a fraction whose denominator
 244:./lib/lib8tion/scale8.h **** ///         is 256. In other words, it computes i * (scale / 256)
 245:./lib/lib8tion/scale8.h **** 
 246:./lib/lib8tion/scale8.h **** LIB8STATIC_ALWAYS_INLINE uint16_t scale16by8( uint16_t i, fract8 scale )
 247:./lib/lib8tion/scale8.h **** {
 248:./lib/lib8tion/scale8.h **** #if SCALE16BY8_C == 1
 249:./lib/lib8tion/scale8.h ****     uint16_t result;
 250:./lib/lib8tion/scale8.h **** #if FASTLED_SCALE8_FIXED == 1
 251:./lib/lib8tion/scale8.h ****     result = (i * (1+((uint16_t)scale))) >> 8;
 252:./lib/lib8tion/scale8.h **** #else
 253:./lib/lib8tion/scale8.h ****     result = (i * scale) / 256;
 2184              		.loc 4 253 17 view .LVU551
 2185 000a 344B     		ldr	r3, .L106
 2186              	.LBE169:
 2187              	.LBE168:
 2188              		.loc 24 8 20 view .LVU552
 2189 000c 99F80450 		ldrb	r5, [r9, #4]	@ zero_extendqisi2
 2190              	.LBB174:
 2191              	.LBB170:
 2192              		.loc 4 253 17 view .LVU553
 2193 0010 1B88     		ldrh	r3, [r3]
 2194              	.LBE170:
 2195              	.LBE174:
   6:quantum/rgb_matrix/animations/runners/effect_runner_dx_dy_dist.h **** 
 2196              		.loc 24 6 5 view .LVU554
 2197 0012 04EB8404 		add	r4, r4, r4, lsl #2
 2198 0016 A400     		lsls	r4, r4, #2
 2199              	.LBB175:
 2200              	.LBB171:
 2201              		.loc 4 253 17 view .LVU555
 2202 0018 6D08     		lsrs	r5, r5, #1
 2203              	.LBE171:
 2204              	.LBE175:
   5:quantum/rgb_matrix/animations/runners/effect_runner_dx_dy_dist.h ****     RGB_MATRIX_USE_LIMITS(led_min, led_max);
 2205              		.loc 24 5 82 view .LVU556
 2206 001a 89B0     		sub	sp, sp, #36
 2207              		.cfi_def_cfa_offset 72
   6:quantum/rgb_matrix/animations/runners/effect_runner_dx_dy_dist.h **** 
 2208              		.loc 24 6 5 view .LVU557
 2209 001c E4B2     		uxtb	r4, r4
 2210              	.LVL155:
   6:quantum/rgb_matrix/animations/runners/effect_runner_dx_dy_dist.h **** 
 2211              		.loc 24 6 5 is_stmt 1 view .LVU558
 2212              	.LBB176:
 2213              	.LBB172:
 2214              		.loc 4 253 17 is_stmt 0 view .LVU559
 2215 001e 5D43     		muls	r5, r3, r5
 2216              	.LBE172:
 2217              	.LBE176:
 2218              		.loc 24 8 13 view .LVU560
 2219 0020 C5F30723 		ubfx	r3, r5, #8, #8
   6:quantum/rgb_matrix/animations/runners/effect_runner_dx_dy_dist.h **** 
 2220              		.loc 24 6 5 view .LVU561
 2221 0024 04F11406 		add	r6, r4, #20
 2222 0028 F6B2     		uxtb	r6, r6
 2223              	.LVL156:
   6:quantum/rgb_matrix/animations/runners/effect_runner_dx_dy_dist.h **** 
 2224              		.loc 24 6 5 is_stmt 1 view .LVU562
 2225              		.loc 24 8 13 is_stmt 0 view .LVU563
 2226 002a 0293     		str	r3, [sp, #8]
 2227 002c 2C4B     		ldr	r3, .L106+4
   5:quantum/rgb_matrix/animations/runners/effect_runner_dx_dy_dist.h ****     RGB_MATRIX_USE_LIMITS(led_min, led_max);
 2228              		.loc 24 5 82 view .LVU564
 2229 002e 0391     		str	r1, [sp, #12]
 2230 0030 622E     		cmp	r6, #98
 2231 0032 B346     		mov	fp, r6
 2232 0034 8046     		mov	r8, r0
 2233 0036 28BF     		it	cs
 2234 0038 4FF0620B 		movcs	fp, #98
 2235              	.LVL157:
   6:quantum/rgb_matrix/animations/runners/effect_runner_dx_dy_dist.h **** 
 2236              		.loc 24 6 44 is_stmt 1 view .LVU565
 2237              		.loc 24 8 5 view .LVU566
 2238              	.LBB177:
 2239              	.LBI168:
 246:./lib/lib8tion/scale8.h **** {
 2240              		.loc 4 246 35 view .LVU567
 2241              	.LBB173:
 249:./lib/lib8tion/scale8.h **** #if FASTLED_SCALE8_FIXED == 1
 2242              		.loc 4 249 5 view .LVU568
 2243              		.loc 4 253 5 view .LVU569
 254:./lib/lib8tion/scale8.h **** #endif
 255:./lib/lib8tion/scale8.h ****     return result;
 2244              		.loc 4 255 5 view .LVU570
 2245              		.loc 4 255 5 is_stmt 0 view .LVU571
 2246              	.LBE173:
 2247              	.LBE177:
   9:quantum/rgb_matrix/animations/runners/effect_runner_dx_dy_dist.h ****     for (uint8_t i = led_min; i < led_max; i++) {
 2248              		.loc 24 9 5 is_stmt 1 view .LVU572
 2249              	.LBB178:
 2250              		.loc 24 9 10 view .LVU573
 2251              		.loc 24 9 10 is_stmt 0 view .LVU574
 2252 003c 03EB4407 		add	r7, r3, r4, lsl #1
 2253              	.LBB179:
  10:quantum/rgb_matrix/animations/runners/effect_runner_dx_dy_dist.h ****         RGB_MATRIX_TEST_LED_FLAGS();
 2254              		.loc 24 10 9 view .LVU575
 2255 0040 03F58E7A 		add	r10, r3, #284
 2256              	.LVL158:
 2257              	.L102:
 2258              		.loc 24 10 9 view .LVU576
 2259              	.LBE179:
   9:quantum/rgb_matrix/animations/runners/effect_runner_dx_dy_dist.h ****     for (uint8_t i = led_min; i < led_max; i++) {
 2260              		.loc 24 9 31 is_stmt 1 discriminator 1 view .LVU577
   9:quantum/rgb_matrix/animations/runners/effect_runner_dx_dy_dist.h ****     for (uint8_t i = led_min; i < led_max; i++) {
 2261              		.loc 24 9 5 is_stmt 0 discriminator 1 view .LVU578
 2262 0044 E3B2     		uxtb	r3, r4
 2263 0046 9B45     		cmp	fp, r3
 2264 0048 06D8     		bhi	.L105
 2265              	.LBE178:
  11:quantum/rgb_matrix/animations/runners/effect_runner_dx_dy_dist.h ****         int16_t dx   = g_led_config.point[i].x - k_rgb_matrix_center.x;
  12:quantum/rgb_matrix/animations/runners/effect_runner_dx_dy_dist.h ****         int16_t dy   = g_led_config.point[i].y - k_rgb_matrix_center.y;
  13:quantum/rgb_matrix/animations/runners/effect_runner_dx_dy_dist.h ****         uint8_t dist = sqrt16(dx * dx + dy * dy);
  14:quantum/rgb_matrix/animations/runners/effect_runner_dx_dy_dist.h ****         RGB     rgb  = rgb_matrix_hsv_to_rgb(effect_func(rgb_matrix_config.hsv, dx, dy, dist, time)
  15:quantum/rgb_matrix/animations/runners/effect_runner_dx_dy_dist.h ****         rgb_matrix_set_color(i, rgb.r, rgb.g, rgb.b);
  16:quantum/rgb_matrix/animations/runners/effect_runner_dx_dy_dist.h ****     }
  17:quantum/rgb_matrix/animations/runners/effect_runner_dx_dy_dist.h ****     return led_max < DRIVER_LED_TOTAL;
 2266              		.loc 24 17 5 is_stmt 1 view .LVU579
  18:quantum/rgb_matrix/animations/runners/effect_runner_dx_dy_dist.h **** }
 2267              		.loc 24 18 1 is_stmt 0 view .LVU580
 2268 004a 612E     		cmp	r6, #97
 2269 004c 8CBF     		ite	hi
 2270 004e 0020     		movhi	r0, #0
 2271 0050 0120     		movls	r0, #1
 2272 0052 09B0     		add	sp, sp, #36
 2273              		.cfi_remember_state
 2274              		.cfi_def_cfa_offset 36
 2275              		@ sp needed
 2276 0054 BDE8F08F 		pop	{r4, r5, r6, r7, r8, r9, r10, fp, pc}
 2277              	.LVL159:
 2278              	.L105:
 2279              		.cfi_restore_state
 2280              	.LBB181:
 2281              	.LBB180:
  10:quantum/rgb_matrix/animations/runners/effect_runner_dx_dy_dist.h ****         RGB_MATRIX_TEST_LED_FLAGS();
 2282              		.loc 24 10 9 is_stmt 1 view .LVU581
 2283 0058 14F80A20 		ldrb	r2, [r4, r10]	@ zero_extendqisi2
 2284 005c 98F80130 		ldrb	r3, [r8, #1]	@ zero_extendqisi2
 2285 0060 1A42     		tst	r2, r3
 2286 0062 38D0     		beq	.L104
  11:quantum/rgb_matrix/animations/runners/effect_runner_dx_dy_dist.h ****         int16_t dx   = g_led_config.point[i].x - k_rgb_matrix_center.x;
 2287              		.loc 24 11 9 view .LVU582
  12:quantum/rgb_matrix/animations/runners/effect_runner_dx_dy_dist.h ****         uint8_t dist = sqrt16(dx * dx + dy * dy);
 2288              		.loc 24 12 45 is_stmt 0 view .LVU583
 2289 0064 97F85930 		ldrb	r3, [r7, #89]	@ zero_extendqisi2
  11:quantum/rgb_matrix/animations/runners/effect_runner_dx_dy_dist.h ****         int16_t dx   = g_led_config.point[i].x - k_rgb_matrix_center.x;
 2290              		.loc 24 11 45 view .LVU584
 2291 0068 97F85800 		ldrb	r0, [r7, #88]	@ zero_extendqisi2
  12:quantum/rgb_matrix/animations/runners/effect_runner_dx_dy_dist.h ****         uint8_t dist = sqrt16(dx * dx + dy * dy);
 2292              		.loc 24 12 48 view .LVU585
 2293 006c 203B     		subs	r3, r3, #32
 2294 006e 9AB2     		uxth	r2, r3
  11:quantum/rgb_matrix/animations/runners/effect_runner_dx_dy_dist.h ****         int16_t dx   = g_led_config.point[i].x - k_rgb_matrix_center.x;
 2295              		.loc 24 11 48 view .LVU586
 2296 0070 7038     		subs	r0, r0, #112
  13:quantum/rgb_matrix/animations/runners/effect_runner_dx_dy_dist.h ****         RGB     rgb  = rgb_matrix_hsv_to_rgb(effect_func(rgb_matrix_config.hsv, dx, dy, dist, time)
 2297              		.loc 24 13 44 view .LVU587
 2298 0072 13FB03F3 		smulbb	r3, r3, r3
  11:quantum/rgb_matrix/animations/runners/effect_runner_dx_dy_dist.h ****         int16_t dy   = g_led_config.point[i].y - k_rgb_matrix_center.y;
 2299              		.loc 24 11 48 view .LVU588
 2300 0076 81B2     		uxth	r1, r0
  13:quantum/rgb_matrix/animations/runners/effect_runner_dx_dy_dist.h ****         RGB     rgb  = rgb_matrix_hsv_to_rgb(effect_func(rgb_matrix_config.hsv, dx, dy, dist, time)
 2301              		.loc 24 13 24 view .LVU589
 2302 0078 00FB0030 		mla	r0, r0, r0, r3
 2303 007c 80B2     		uxth	r0, r0
  11:quantum/rgb_matrix/animations/runners/effect_runner_dx_dy_dist.h ****         int16_t dy   = g_led_config.point[i].y - k_rgb_matrix_center.y;
 2304              		.loc 24 11 48 view .LVU590
 2305 007e 0591     		str	r1, [sp, #20]
 2306              	.LVL160:
  12:quantum/rgb_matrix/animations/runners/effect_runner_dx_dy_dist.h ****         uint8_t dist = sqrt16(dx * dx + dy * dy);
 2307              		.loc 24 12 9 is_stmt 1 view .LVU591
  12:quantum/rgb_matrix/animations/runners/effect_runner_dx_dy_dist.h ****         uint8_t dist = sqrt16(dx * dx + dy * dy);
 2308              		.loc 24 12 48 is_stmt 0 view .LVU592
 2309 0080 0492     		str	r2, [sp, #16]
 2310              	.LVL161:
  13:quantum/rgb_matrix/animations/runners/effect_runner_dx_dy_dist.h ****         RGB     rgb  = rgb_matrix_hsv_to_rgb(effect_func(rgb_matrix_config.hsv, dx, dy, dist, time)
 2311              		.loc 24 13 9 is_stmt 1 view .LVU593
  13:quantum/rgb_matrix/animations/runners/effect_runner_dx_dy_dist.h ****         RGB     rgb  = rgb_matrix_hsv_to_rgb(effect_func(rgb_matrix_config.hsv, dx, dy, dist, time)
 2312              		.loc 24 13 24 is_stmt 0 view .LVU594
 2313 0082 FFF7FEFF 		bl	sqrt16
 2314              	.LVL162:
  14:quantum/rgb_matrix/animations/runners/effect_runner_dx_dy_dist.h ****         rgb_matrix_set_color(i, rgb.r, rgb.g, rgb.b);
 2315              		.loc 24 14 24 view .LVU595
 2316 0086 029A     		ldr	r2, [sp, #8]
 2317 0088 99F801C0 		ldrb	ip, [r9, #1]	@ zero_extendqisi2
 2318 008c 99F803E0 		ldrb	lr, [r9, #3]	@ zero_extendqisi2
 2319 0090 0599     		ldr	r1, [sp, #20]
 2320 0092 0092     		str	r2, [sp]
  13:quantum/rgb_matrix/animations/runners/effect_runner_dx_dy_dist.h ****         RGB     rgb  = rgb_matrix_hsv_to_rgb(effect_func(rgb_matrix_config.hsv, dx, dy, dist, time)
 2321              		.loc 24 13 24 view .LVU596
 2322 0094 0346     		mov	r3, r0
 2323              	.LVL163:
  14:quantum/rgb_matrix/animations/runners/effect_runner_dx_dy_dist.h ****         rgb_matrix_set_color(i, rgb.r, rgb.g, rgb.b);
 2324              		.loc 24 14 9 is_stmt 1 view .LVU597
  14:quantum/rgb_matrix/animations/runners/effect_runner_dx_dy_dist.h ****         rgb_matrix_set_color(i, rgb.r, rgb.g, rgb.b);
 2325              		.loc 24 14 24 is_stmt 0 view .LVU598
 2326 0096 99F80200 		ldrb	r0, [r9, #2]	@ zero_extendqisi2
 2327 009a 049A     		ldr	r2, [sp, #16]
 2328 009c 039D     		ldr	r5, [sp, #12]
 2329 009e 4CEA0020 		orr	r0, ip, r0, lsl #8
 2330 00a2 12B2     		sxth	r2, r2
 2331 00a4 09B2     		sxth	r1, r1
 2332 00a6 40EA0E40 		orr	r0, r0, lr, lsl #16
 2333 00aa A847     		blx	r5
 2334              	.LVL164:
  14:quantum/rgb_matrix/animations/runners/effect_runner_dx_dy_dist.h ****         rgb_matrix_set_color(i, rgb.r, rgb.g, rgb.b);
 2335              		.loc 24 14 24 view .LVU599
 2336 00ac C0F30723 		ubfx	r3, r0, #8, #8
 2337 00b0 8DF81C00 		strb	r0, [sp, #28]
 2338 00b4 C0F30740 		ubfx	r0, r0, #16, #8
 2339 00b8 8DF81D30 		strb	r3, [sp, #29]
 2340 00bc 8DF81E00 		strb	r0, [sp, #30]
 2341 00c0 0798     		ldr	r0, [sp, #28]
 2342 00c2 FFF7FEFF 		bl	rgb_matrix_hsv_to_rgb
 2343              	.LVL165:
  15:quantum/rgb_matrix/animations/runners/effect_runner_dx_dy_dist.h ****     }
 2344              		.loc 24 15 9 is_stmt 1 view .LVU600
 2345 00c6 C0F30743 		ubfx	r3, r0, #16, #8
 2346 00ca C2B2     		uxtb	r2, r0
 2347 00cc C0F30721 		ubfx	r1, r0, #8, #8
 2348 00d0 2046     		mov	r0, r4
 2349 00d2 FFF7FEFF 		bl	rgb_matrix_set_color
 2350              	.LVL166:
 2351              	.L104:
  15:quantum/rgb_matrix/animations/runners/effect_runner_dx_dy_dist.h ****     }
 2352              		.loc 24 15 9 is_stmt 0 view .LVU601
 2353              	.LBE180:
   9:quantum/rgb_matrix/animations/runners/effect_runner_dx_dy_dist.h ****         RGB_MATRIX_TEST_LED_FLAGS();
 2354              		.loc 24 9 44 is_stmt 1 discriminator 2 view .LVU602
   9:quantum/rgb_matrix/animations/runners/effect_runner_dx_dy_dist.h ****         RGB_MATRIX_TEST_LED_FLAGS();
 2355              		.loc 24 9 44 is_stmt 0 discriminator 2 view .LVU603
 2356 00d6 0237     		adds	r7, r7, #2
 2357 00d8 0134     		adds	r4, r4, #1
 2358              	.LVL167:
   9:quantum/rgb_matrix/animations/runners/effect_runner_dx_dy_dist.h ****         RGB_MATRIX_TEST_LED_FLAGS();
 2359              		.loc 24 9 44 discriminator 2 view .LVU604
 2360 00da B3E7     		b	.L102
 2361              	.L107:
 2362              		.align	2
 2363              	.L106:
 2364 00dc 00000000 		.word	g_rgb_timer
 2365 00e0 00000000 		.word	g_led_config
 2366 00e4 00000000 		.word	rgb_matrix_config
 2367              	.LBE181:
 2368              		.cfi_endproc
 2369              	.LFE364:
 2371              		.section	.text.BAND_SPIRAL_SAT,"ax",%progbits
 2372              		.align	1
 2373              		.global	BAND_SPIRAL_SAT
 2374              		.syntax unified
 2375              		.thumb
 2376              		.thumb_func
 2377              		.fpu fpv4-sp-d16
 2379              	BAND_SPIRAL_SAT:
 2380              	.LVL168:
 2381              	.LFB382:
   9:quantum/rgb_matrix/animations/colorband_spiral_sat_anim.h **** 
  10:quantum/rgb_matrix/animations/colorband_spiral_sat_anim.h **** bool BAND_SPIRAL_SAT(effect_params_t* params) { return effect_runner_dx_dy_dist(params, &BAND_SPIRA
 2382              		.loc 19 10 47 is_stmt 1 view -0
 2383              		.cfi_startproc
 2384              		@ args = 0, pretend = 0, frame = 0
 2385              		@ frame_needed = 0, uses_anonymous_args = 0
 2386              		@ link register save eliminated.
 2387              		.loc 19 10 49 view .LVU606
 2388              		.loc 19 10 56 is_stmt 0 view .LVU607
 2389 0000 0149     		ldr	r1, .L109
 2390 0002 FFF7FEBF 		b	effect_runner_dx_dy_dist
 2391              	.LVL169:
 2392              	.L110:
 2393              		.loc 19 10 56 view .LVU608
 2394 0006 00BF     		.align	2
 2395              	.L109:
 2396 0008 00000000 		.word	BAND_SPIRAL_SAT_math
 2397              		.cfi_endproc
 2398              	.LFE382:
 2400              		.section	.text.BAND_SPIRAL_VAL,"ax",%progbits
 2401              		.align	1
 2402              		.global	BAND_SPIRAL_VAL
 2403              		.syntax unified
 2404              		.thumb
 2405              		.thumb_func
 2406              		.fpu fpv4-sp-d16
 2408              	BAND_SPIRAL_VAL:
 2409              	.LVL170:
 2410              	.LFB384:
   9:quantum/rgb_matrix/animations/colorband_spiral_val_anim.h **** 
  10:quantum/rgb_matrix/animations/colorband_spiral_val_anim.h **** bool BAND_SPIRAL_VAL(effect_params_t* params) { return effect_runner_dx_dy_dist(params, &BAND_SPIRA
 2411              		.loc 20 10 47 is_stmt 1 view -0
 2412              		.cfi_startproc
 2413              		@ args = 0, pretend = 0, frame = 0
 2414              		@ frame_needed = 0, uses_anonymous_args = 0
 2415              		@ link register save eliminated.
 2416              		.loc 20 10 49 view .LVU610
 2417              		.loc 20 10 56 is_stmt 0 view .LVU611
 2418 0000 0149     		ldr	r1, .L112
 2419 0002 FFF7FEBF 		b	effect_runner_dx_dy_dist
 2420              	.LVL171:
 2421              	.L113:
 2422              		.loc 20 10 56 view .LVU612
 2423 0006 00BF     		.align	2
 2424              	.L112:
 2425 0008 00000000 		.word	BAND_SPIRAL_VAL_math
 2426              		.cfi_endproc
 2427              	.LFE384:
 2429              		.section	.text.CYCLE_OUT_IN,"ax",%progbits
 2430              		.align	1
 2431              		.global	CYCLE_OUT_IN
 2432              		.syntax unified
 2433              		.thumb
 2434              		.thumb_func
 2435              		.fpu fpv4-sp-d16
 2437              	CYCLE_OUT_IN:
 2438              	.LVL172:
 2439              	.LFB394:
   9:quantum/rgb_matrix/animations/cycle_out_in_anim.h **** 
  10:quantum/rgb_matrix/animations/cycle_out_in_anim.h **** bool CYCLE_OUT_IN(effect_params_t* params) { return effect_runner_dx_dy_dist(params, &CYCLE_OUT_IN_
 2440              		.loc 10 10 44 is_stmt 1 view -0
 2441              		.cfi_startproc
 2442              		@ args = 0, pretend = 0, frame = 0
 2443              		@ frame_needed = 0, uses_anonymous_args = 0
 2444              		@ link register save eliminated.
 2445              		.loc 10 10 46 view .LVU614
 2446              		.loc 10 10 53 is_stmt 0 view .LVU615
 2447 0000 0149     		ldr	r1, .L115
 2448 0002 FFF7FEBF 		b	effect_runner_dx_dy_dist
 2449              	.LVL173:
 2450              	.L116:
 2451              		.loc 10 10 53 view .LVU616
 2452 0006 00BF     		.align	2
 2453              	.L115:
 2454 0008 00000000 		.word	CYCLE_OUT_IN_math
 2455              		.cfi_endproc
 2456              	.LFE394:
 2458              		.section	.text.CYCLE_SPIRAL,"ax",%progbits
 2459              		.align	1
 2460              		.global	CYCLE_SPIRAL
 2461              		.syntax unified
 2462              		.thumb
 2463              		.thumb_func
 2464              		.fpu fpv4-sp-d16
 2466              	CYCLE_SPIRAL:
 2467              	.LVL174:
 2468              	.LFB400:
   9:quantum/rgb_matrix/animations/cycle_spiral_anim.h **** 
  10:quantum/rgb_matrix/animations/cycle_spiral_anim.h **** bool CYCLE_SPIRAL(effect_params_t* params) { return effect_runner_dx_dy_dist(params, &CYCLE_SPIRAL_
 2469              		.loc 22 10 44 is_stmt 1 view -0
 2470              		.cfi_startproc
 2471              		@ args = 0, pretend = 0, frame = 0
 2472              		@ frame_needed = 0, uses_anonymous_args = 0
 2473              		@ link register save eliminated.
 2474              		.loc 22 10 46 view .LVU618
 2475              		.loc 22 10 53 is_stmt 0 view .LVU619
 2476 0000 0149     		ldr	r1, .L118
 2477 0002 FFF7FEBF 		b	effect_runner_dx_dy_dist
 2478              	.LVL175:
 2479              	.L119:
 2480              		.loc 22 10 53 view .LVU620
 2481 0006 00BF     		.align	2
 2482              	.L118:
 2483 0008 00000000 		.word	CYCLE_SPIRAL_math
 2484              		.cfi_endproc
 2485              	.LFE400:
 2487              		.section	.text.effect_runner_dx_dy,"ax",%progbits
 2488              		.align	1
 2489              		.global	effect_runner_dx_dy
 2490              		.syntax unified
 2491              		.thumb
 2492              		.thumb_func
 2493              		.fpu fpv4-sp-d16
 2495              	effect_runner_dx_dy:
 2496              	.LVL176:
 2497              	.LFB365:
 2498              		.file 25 "quantum/rgb_matrix/animations/runners/effect_runner_dx_dy.h"
   1:quantum/rgb_matrix/animations/runners/effect_runner_dx_dy.h **** #pragma once
   2:quantum/rgb_matrix/animations/runners/effect_runner_dx_dy.h **** 
   3:quantum/rgb_matrix/animations/runners/effect_runner_dx_dy.h **** typedef HSV (*dx_dy_f)(HSV hsv, int16_t dx, int16_t dy, uint8_t time);
   4:quantum/rgb_matrix/animations/runners/effect_runner_dx_dy.h **** 
   5:quantum/rgb_matrix/animations/runners/effect_runner_dx_dy.h **** bool effect_runner_dx_dy(effect_params_t* params, dx_dy_f effect_func) {
 2499              		.loc 25 5 72 is_stmt 1 view -0
 2500              		.cfi_startproc
 2501              		@ args = 0, pretend = 0, frame = 16
 2502              		@ frame_needed = 0, uses_anonymous_args = 0
   6:quantum/rgb_matrix/animations/runners/effect_runner_dx_dy.h ****     RGB_MATRIX_USE_LIMITS(led_min, led_max);
 2503              		.loc 25 6 5 view .LVU622
   5:quantum/rgb_matrix/animations/runners/effect_runner_dx_dy.h ****     RGB_MATRIX_USE_LIMITS(led_min, led_max);
 2504              		.loc 25 5 72 is_stmt 0 view .LVU623
 2505 0000 2DE9F04F 		push	{r4, r5, r6, r7, r8, r9, r10, fp, lr}
 2506              		.cfi_def_cfa_offset 36
 2507              		.cfi_offset 4, -36
 2508              		.cfi_offset 5, -32
 2509              		.cfi_offset 6, -28
 2510              		.cfi_offset 7, -24
 2511              		.cfi_offset 8, -20
 2512              		.cfi_offset 9, -16
 2513              		.cfi_offset 10, -12
 2514              		.cfi_offset 11, -8
 2515              		.cfi_offset 14, -4
 2516 0004 2DED028B 		vpush.64	{d8}
 2517              		.cfi_def_cfa_offset 44
 2518              		.cfi_offset 80, -44
 2519              		.cfi_offset 81, -40
 2520              	.LBB182:
 2521              	.LBB183:
 253:./lib/lib8tion/scale8.h **** #endif
 2522              		.loc 4 253 17 view .LVU624
 2523 0008 2F4B     		ldr	r3, .L125
 2524              	.LBE183:
 2525              	.LBE182:
   7:quantum/rgb_matrix/animations/runners/effect_runner_dx_dy.h **** 
   8:quantum/rgb_matrix/animations/runners/effect_runner_dx_dy.h ****     uint8_t time = scale16by8(g_rgb_timer, rgb_matrix_config.speed / 2);
 2526              		.loc 25 8 61 view .LVU625
 2527 000a DFF8C490 		ldr	r9, .L125+8
   6:quantum/rgb_matrix/animations/runners/effect_runner_dx_dy.h **** 
 2528              		.loc 25 6 5 view .LVU626
 2529 000e 0478     		ldrb	r4, [r0]	@ zero_extendqisi2
 2530              	.LBB188:
 2531              	.LBB184:
 253:./lib/lib8tion/scale8.h **** #endif
 2532              		.loc 4 253 17 view .LVU627
 2533 0010 1D88     		ldrh	r5, [r3]
 2534              	.LBE184:
 2535              	.LBE188:
 2536              		.loc 25 8 20 view .LVU628
 2537 0012 99F80430 		ldrb	r3, [r9, #4]	@ zero_extendqisi2
   6:quantum/rgb_matrix/animations/runners/effect_runner_dx_dy.h **** 
 2538              		.loc 25 6 5 view .LVU629
 2539 0016 04EB8404 		add	r4, r4, r4, lsl #2
 2540              	.LBB189:
 2541              	.LBB185:
 253:./lib/lib8tion/scale8.h **** #endif
 2542              		.loc 4 253 17 view .LVU630
 2543 001a 5B08     		lsrs	r3, r3, #1
 2544              	.LBE185:
 2545              	.LBE189:
   6:quantum/rgb_matrix/animations/runners/effect_runner_dx_dy.h **** 
 2546              		.loc 25 6 5 view .LVU631
 2547 001c A400     		lsls	r4, r4, #2
 2548 001e E4B2     		uxtb	r4, r4
 2549              	.LVL177:
   6:quantum/rgb_matrix/animations/runners/effect_runner_dx_dy.h **** 
 2550              		.loc 25 6 5 is_stmt 1 view .LVU632
 2551              	.LBB190:
 2552              	.LBB186:
 253:./lib/lib8tion/scale8.h **** #endif
 2553              		.loc 4 253 17 is_stmt 0 view .LVU633
 2554 0020 5D43     		muls	r5, r3, r5
 2555              	.LBE186:
 2556              	.LBE190:
 2557              		.loc 25 8 13 view .LVU634
 2558 0022 C5F30723 		ubfx	r3, r5, #8, #8
   6:quantum/rgb_matrix/animations/runners/effect_runner_dx_dy.h **** 
 2559              		.loc 25 6 5 view .LVU635
 2560 0026 04F11406 		add	r6, r4, #20
 2561 002a F6B2     		uxtb	r6, r6
 2562              	.LVL178:
   6:quantum/rgb_matrix/animations/runners/effect_runner_dx_dy.h **** 
 2563              		.loc 25 6 5 is_stmt 1 view .LVU636
 2564              		.loc 25 8 13 is_stmt 0 view .LVU637
 2565 002c 08EE103A 		vmov	s16, r3	@ int
   5:quantum/rgb_matrix/animations/runners/effect_runner_dx_dy.h ****     RGB_MATRIX_USE_LIMITS(led_min, led_max);
 2566              		.loc 25 5 72 view .LVU638
 2567 0030 85B0     		sub	sp, sp, #20
 2568              		.cfi_def_cfa_offset 64
 2569 0032 264B     		ldr	r3, .L125+4
   5:quantum/rgb_matrix/animations/runners/effect_runner_dx_dy.h ****     RGB_MATRIX_USE_LIMITS(led_min, led_max);
 2570              		.loc 25 5 72 view .LVU639
 2571 0034 0191     		str	r1, [sp, #4]
 2572 0036 622E     		cmp	r6, #98
 2573 0038 B346     		mov	fp, r6
 2574 003a 8046     		mov	r8, r0
 2575 003c 28BF     		it	cs
 2576 003e 4FF0620B 		movcs	fp, #98
 2577              	.LVL179:
   6:quantum/rgb_matrix/animations/runners/effect_runner_dx_dy.h **** 
 2578              		.loc 25 6 44 is_stmt 1 view .LVU640
 2579              		.loc 25 8 5 view .LVU641
 2580              	.LBB191:
 2581              	.LBI182:
 246:./lib/lib8tion/scale8.h **** {
 2582              		.loc 4 246 35 view .LVU642
 2583              	.LBB187:
 249:./lib/lib8tion/scale8.h **** #if FASTLED_SCALE8_FIXED == 1
 2584              		.loc 4 249 5 view .LVU643
 253:./lib/lib8tion/scale8.h **** #endif
 2585              		.loc 4 253 5 view .LVU644
 2586              		.loc 4 255 5 view .LVU645
 2587              		.loc 4 255 5 is_stmt 0 view .LVU646
 2588              	.LBE187:
 2589              	.LBE191:
   9:quantum/rgb_matrix/animations/runners/effect_runner_dx_dy.h ****     for (uint8_t i = led_min; i < led_max; i++) {
 2590              		.loc 25 9 5 is_stmt 1 view .LVU647
 2591              	.LBB192:
 2592              		.loc 25 9 10 view .LVU648
 2593              		.loc 25 9 10 is_stmt 0 view .LVU649
 2594 0042 03EB4407 		add	r7, r3, r4, lsl #1
 2595              	.LBB193:
  10:quantum/rgb_matrix/animations/runners/effect_runner_dx_dy.h ****         RGB_MATRIX_TEST_LED_FLAGS();
 2596              		.loc 25 10 9 view .LVU650
 2597 0046 03F58E7A 		add	r10, r3, #284
 2598              	.LVL180:
 2599              	.L121:
 2600              		.loc 25 10 9 view .LVU651
 2601              	.LBE193:
   9:quantum/rgb_matrix/animations/runners/effect_runner_dx_dy.h ****     for (uint8_t i = led_min; i < led_max; i++) {
 2602              		.loc 25 9 31 is_stmt 1 discriminator 1 view .LVU652
   9:quantum/rgb_matrix/animations/runners/effect_runner_dx_dy.h ****     for (uint8_t i = led_min; i < led_max; i++) {
 2603              		.loc 25 9 5 is_stmt 0 discriminator 1 view .LVU653
 2604 004a E3B2     		uxtb	r3, r4
 2605 004c 9B45     		cmp	fp, r3
 2606 004e 08D8     		bhi	.L124
 2607              	.LBE192:
  11:quantum/rgb_matrix/animations/runners/effect_runner_dx_dy.h ****         int16_t dx  = g_led_config.point[i].x - k_rgb_matrix_center.x;
  12:quantum/rgb_matrix/animations/runners/effect_runner_dx_dy.h ****         int16_t dy  = g_led_config.point[i].y - k_rgb_matrix_center.y;
  13:quantum/rgb_matrix/animations/runners/effect_runner_dx_dy.h ****         RGB     rgb = rgb_matrix_hsv_to_rgb(effect_func(rgb_matrix_config.hsv, dx, dy, time));
  14:quantum/rgb_matrix/animations/runners/effect_runner_dx_dy.h ****         rgb_matrix_set_color(i, rgb.r, rgb.g, rgb.b);
  15:quantum/rgb_matrix/animations/runners/effect_runner_dx_dy.h ****     }
  16:quantum/rgb_matrix/animations/runners/effect_runner_dx_dy.h ****     return led_max < DRIVER_LED_TOTAL;
 2608              		.loc 25 16 5 is_stmt 1 view .LVU654
  17:quantum/rgb_matrix/animations/runners/effect_runner_dx_dy.h **** }
 2609              		.loc 25 17 1 is_stmt 0 view .LVU655
 2610 0050 612E     		cmp	r6, #97
 2611 0052 8CBF     		ite	hi
 2612 0054 0020     		movhi	r0, #0
 2613 0056 0120     		movls	r0, #1
 2614 0058 05B0     		add	sp, sp, #20
 2615              		.cfi_remember_state
 2616              		.cfi_def_cfa_offset 44
 2617              		@ sp needed
 2618 005a BDEC028B 		vldm	sp!, {d8}
 2619              		.cfi_restore 80
 2620              		.cfi_restore 81
 2621              		.cfi_def_cfa_offset 36
 2622              	.LVL181:
 2623              		.loc 25 17 1 view .LVU656
 2624 005e BDE8F08F 		pop	{r4, r5, r6, r7, r8, r9, r10, fp, pc}
 2625              	.LVL182:
 2626              	.L124:
 2627              		.cfi_restore_state
 2628              	.LBB195:
 2629              	.LBB194:
  10:quantum/rgb_matrix/animations/runners/effect_runner_dx_dy.h ****         RGB_MATRIX_TEST_LED_FLAGS();
 2630              		.loc 25 10 9 is_stmt 1 view .LVU657
 2631 0062 14F80A20 		ldrb	r2, [r4, r10]	@ zero_extendqisi2
 2632 0066 98F80130 		ldrb	r3, [r8, #1]	@ zero_extendqisi2
 2633 006a 1A42     		tst	r2, r3
 2634 006c 28D0     		beq	.L123
  11:quantum/rgb_matrix/animations/runners/effect_runner_dx_dy.h ****         int16_t dx  = g_led_config.point[i].x - k_rgb_matrix_center.x;
 2635              		.loc 25 11 9 view .LVU658
 2636              	.LVL183:
  12:quantum/rgb_matrix/animations/runners/effect_runner_dx_dy.h ****         RGB     rgb = rgb_matrix_hsv_to_rgb(effect_func(rgb_matrix_config.hsv, dx, dy, time));
 2637              		.loc 25 12 9 view .LVU659
  13:quantum/rgb_matrix/animations/runners/effect_runner_dx_dy.h ****         rgb_matrix_set_color(i, rgb.r, rgb.g, rgb.b);
 2638              		.loc 25 13 9 view .LVU660
  13:quantum/rgb_matrix/animations/runners/effect_runner_dx_dy.h ****         rgb_matrix_set_color(i, rgb.r, rgb.g, rgb.b);
 2639              		.loc 25 13 23 is_stmt 0 view .LVU661
 2640 006e 99F80230 		ldrb	r3, [r9, #2]	@ zero_extendqisi2
 2641 0072 99F80100 		ldrb	r0, [r9, #1]	@ zero_extendqisi2
 2642 0076 99F803C0 		ldrb	ip, [r9, #3]	@ zero_extendqisi2
  12:quantum/rgb_matrix/animations/runners/effect_runner_dx_dy.h ****         RGB     rgb = rgb_matrix_hsv_to_rgb(effect_func(rgb_matrix_config.hsv, dx, dy, time));
 2643              		.loc 25 12 44 view .LVU662
 2644 007a 97F85920 		ldrb	r2, [r7, #89]	@ zero_extendqisi2
  11:quantum/rgb_matrix/animations/runners/effect_runner_dx_dy.h ****         int16_t dy  = g_led_config.point[i].y - k_rgb_matrix_center.y;
 2645              		.loc 25 11 44 view .LVU663
 2646 007e 97F85810 		ldrb	r1, [r7, #88]	@ zero_extendqisi2
  13:quantum/rgb_matrix/animations/runners/effect_runner_dx_dy.h ****         rgb_matrix_set_color(i, rgb.r, rgb.g, rgb.b);
 2647              		.loc 25 13 23 view .LVU664
 2648 0082 019D     		ldr	r5, [sp, #4]
 2649 0084 40EA0320 		orr	r0, r0, r3, lsl #8
 2650 0088 203A     		subs	r2, r2, #32
 2651 008a 7039     		subs	r1, r1, #112
 2652 008c 18EE103A 		vmov	r3, s16	@ int
 2653 0090 40EA0C40 		orr	r0, r0, ip, lsl #16
 2654 0094 A847     		blx	r5
 2655              	.LVL184:
  13:quantum/rgb_matrix/animations/runners/effect_runner_dx_dy.h ****         rgb_matrix_set_color(i, rgb.r, rgb.g, rgb.b);
 2656              		.loc 25 13 23 view .LVU665
 2657 0096 C0F30723 		ubfx	r3, r0, #8, #8
 2658 009a 8DF80C00 		strb	r0, [sp, #12]
 2659 009e C0F30740 		ubfx	r0, r0, #16, #8
 2660 00a2 8DF80D30 		strb	r3, [sp, #13]
 2661 00a6 8DF80E00 		strb	r0, [sp, #14]
 2662 00aa 0398     		ldr	r0, [sp, #12]
 2663 00ac FFF7FEFF 		bl	rgb_matrix_hsv_to_rgb
 2664              	.LVL185:
  14:quantum/rgb_matrix/animations/runners/effect_runner_dx_dy.h ****     }
 2665              		.loc 25 14 9 is_stmt 1 view .LVU666
 2666 00b0 C0F30743 		ubfx	r3, r0, #16, #8
 2667 00b4 C2B2     		uxtb	r2, r0
 2668 00b6 C0F30721 		ubfx	r1, r0, #8, #8
 2669 00ba 2046     		mov	r0, r4
 2670 00bc FFF7FEFF 		bl	rgb_matrix_set_color
 2671              	.LVL186:
 2672              	.L123:
  14:quantum/rgb_matrix/animations/runners/effect_runner_dx_dy.h ****     }
 2673              		.loc 25 14 9 is_stmt 0 view .LVU667
 2674              	.LBE194:
   9:quantum/rgb_matrix/animations/runners/effect_runner_dx_dy.h ****         RGB_MATRIX_TEST_LED_FLAGS();
 2675              		.loc 25 9 44 is_stmt 1 discriminator 2 view .LVU668
   9:quantum/rgb_matrix/animations/runners/effect_runner_dx_dy.h ****         RGB_MATRIX_TEST_LED_FLAGS();
 2676              		.loc 25 9 44 is_stmt 0 discriminator 2 view .LVU669
 2677 00c0 0237     		adds	r7, r7, #2
 2678 00c2 0134     		adds	r4, r4, #1
 2679              	.LVL187:
   9:quantum/rgb_matrix/animations/runners/effect_runner_dx_dy.h ****         RGB_MATRIX_TEST_LED_FLAGS();
 2680              		.loc 25 9 44 discriminator 2 view .LVU670
 2681 00c4 C1E7     		b	.L121
 2682              	.L126:
 2683 00c6 00BF     		.align	2
 2684              	.L125:
 2685 00c8 00000000 		.word	g_rgb_timer
 2686 00cc 00000000 		.word	g_led_config
 2687 00d0 00000000 		.word	rgb_matrix_config
 2688              	.LBE195:
 2689              		.cfi_endproc
 2690              	.LFE365:
 2692              		.section	.text.BAND_PINWHEEL_SAT,"ax",%progbits
 2693              		.align	1
 2694              		.global	BAND_PINWHEEL_SAT
 2695              		.syntax unified
 2696              		.thumb
 2697              		.thumb_func
 2698              		.fpu fpv4-sp-d16
 2700              	BAND_PINWHEEL_SAT:
 2701              	.LVL188:
 2702              	.LFB378:
   9:quantum/rgb_matrix/animations/colorband_pinwheel_sat_anim.h **** 
  10:quantum/rgb_matrix/animations/colorband_pinwheel_sat_anim.h **** bool BAND_PINWHEEL_SAT(effect_params_t* params) { return effect_runner_dx_dy(params, &BAND_PINWHEEL
 2703              		.loc 17 10 49 is_stmt 1 view -0
 2704              		.cfi_startproc
 2705              		@ args = 0, pretend = 0, frame = 0
 2706              		@ frame_needed = 0, uses_anonymous_args = 0
 2707              		@ link register save eliminated.
 2708              		.loc 17 10 51 view .LVU672
 2709              		.loc 17 10 58 is_stmt 0 view .LVU673
 2710 0000 0149     		ldr	r1, .L128
 2711 0002 FFF7FEBF 		b	effect_runner_dx_dy
 2712              	.LVL189:
 2713              	.L129:
 2714              		.loc 17 10 58 view .LVU674
 2715 0006 00BF     		.align	2
 2716              	.L128:
 2717 0008 00000000 		.word	BAND_PINWHEEL_SAT_math
 2718              		.cfi_endproc
 2719              	.LFE378:
 2721              		.section	.text.BAND_PINWHEEL_VAL,"ax",%progbits
 2722              		.align	1
 2723              		.global	BAND_PINWHEEL_VAL
 2724              		.syntax unified
 2725              		.thumb
 2726              		.thumb_func
 2727              		.fpu fpv4-sp-d16
 2729              	BAND_PINWHEEL_VAL:
 2730              	.LVL190:
 2731              	.LFB380:
   9:quantum/rgb_matrix/animations/colorband_pinwheel_val_anim.h **** 
  10:quantum/rgb_matrix/animations/colorband_pinwheel_val_anim.h **** bool BAND_PINWHEEL_VAL(effect_params_t* params) { return effect_runner_dx_dy(params, &BAND_PINWHEEL
 2732              		.loc 18 10 49 is_stmt 1 view -0
 2733              		.cfi_startproc
 2734              		@ args = 0, pretend = 0, frame = 0
 2735              		@ frame_needed = 0, uses_anonymous_args = 0
 2736              		@ link register save eliminated.
 2737              		.loc 18 10 51 view .LVU676
 2738              		.loc 18 10 58 is_stmt 0 view .LVU677
 2739 0000 0149     		ldr	r1, .L131
 2740 0002 FFF7FEBF 		b	effect_runner_dx_dy
 2741              	.LVL191:
 2742              	.L132:
 2743              		.loc 18 10 58 view .LVU678
 2744 0006 00BF     		.align	2
 2745              	.L131:
 2746 0008 00000000 		.word	BAND_PINWHEEL_VAL_math
 2747              		.cfi_endproc
 2748              	.LFE380:
 2750              		.section	.text.CYCLE_OUT_IN_DUAL,"ax",%progbits
 2751              		.align	1
 2752              		.global	CYCLE_OUT_IN_DUAL
 2753              		.syntax unified
 2754              		.thumb
 2755              		.thumb_func
 2756              		.fpu fpv4-sp-d16
 2758              	CYCLE_OUT_IN_DUAL:
 2759              	.LVL192:
 2760              	.LFB396:
  11:quantum/rgb_matrix/animations/cycle_out_in_dual_anim.h **** 
  12:quantum/rgb_matrix/animations/cycle_out_in_dual_anim.h **** bool CYCLE_OUT_IN_DUAL(effect_params_t* params) { return effect_runner_dx_dy(params, &CYCLE_OUT_IN_
 2761              		.loc 11 12 49 is_stmt 1 view -0
 2762              		.cfi_startproc
 2763              		@ args = 0, pretend = 0, frame = 0
 2764              		@ frame_needed = 0, uses_anonymous_args = 0
 2765              		@ link register save eliminated.
 2766              		.loc 11 12 51 view .LVU680
 2767              		.loc 11 12 58 is_stmt 0 view .LVU681
 2768 0000 0149     		ldr	r1, .L134
 2769 0002 FFF7FEBF 		b	effect_runner_dx_dy
 2770              	.LVL193:
 2771              	.L135:
 2772              		.loc 11 12 58 view .LVU682
 2773 0006 00BF     		.align	2
 2774              	.L134:
 2775 0008 00000000 		.word	CYCLE_OUT_IN_DUAL_math
 2776              		.cfi_endproc
 2777              	.LFE396:
 2779              		.section	.text.CYCLE_PINWHEEL,"ax",%progbits
 2780              		.align	1
 2781              		.global	CYCLE_PINWHEEL
 2782              		.syntax unified
 2783              		.thumb
 2784              		.thumb_func
 2785              		.fpu fpv4-sp-d16
 2787              	CYCLE_PINWHEEL:
 2788              	.LVL194:
 2789              	.LFB398:
   9:quantum/rgb_matrix/animations/cycle_pinwheel_anim.h **** 
  10:quantum/rgb_matrix/animations/cycle_pinwheel_anim.h **** bool CYCLE_PINWHEEL(effect_params_t* params) { return effect_runner_dx_dy(params, &CYCLE_PINWHEEL_m
 2790              		.loc 21 10 46 is_stmt 1 view -0
 2791              		.cfi_startproc
 2792              		@ args = 0, pretend = 0, frame = 0
 2793              		@ frame_needed = 0, uses_anonymous_args = 0
 2794              		@ link register save eliminated.
 2795              		.loc 21 10 48 view .LVU684
 2796              		.loc 21 10 55 is_stmt 0 view .LVU685
 2797 0000 0149     		ldr	r1, .L137
 2798 0002 FFF7FEBF 		b	effect_runner_dx_dy
 2799              	.LVL195:
 2800              	.L138:
 2801              		.loc 21 10 55 view .LVU686
 2802 0006 00BF     		.align	2
 2803              	.L137:
 2804 0008 00000000 		.word	CYCLE_PINWHEEL_math
 2805              		.cfi_endproc
 2806              	.LFE398:
 2808              		.section	.text.effect_runner_i,"ax",%progbits
 2809              		.align	1
 2810              		.global	effect_runner_i
 2811              		.syntax unified
 2812              		.thumb
 2813              		.thumb_func
 2814              		.fpu fpv4-sp-d16
 2816              	effect_runner_i:
 2817              	.LVL196:
 2818              	.LFB366:
 2819              		.file 26 "quantum/rgb_matrix/animations/runners/effect_runner_i.h"
   1:quantum/rgb_matrix/animations/runners/effect_runner_i.h **** #pragma once
   2:quantum/rgb_matrix/animations/runners/effect_runner_i.h **** 
   3:quantum/rgb_matrix/animations/runners/effect_runner_i.h **** typedef HSV (*i_f)(HSV hsv, uint8_t i, uint8_t time);
   4:quantum/rgb_matrix/animations/runners/effect_runner_i.h **** 
   5:quantum/rgb_matrix/animations/runners/effect_runner_i.h **** bool effect_runner_i(effect_params_t* params, i_f effect_func) {
 2820              		.loc 26 5 64 is_stmt 1 view -0
 2821              		.cfi_startproc
 2822              		@ args = 0, pretend = 0, frame = 8
 2823              		@ frame_needed = 0, uses_anonymous_args = 0
   6:quantum/rgb_matrix/animations/runners/effect_runner_i.h ****     RGB_MATRIX_USE_LIMITS(led_min, led_max);
 2824              		.loc 26 6 5 view .LVU688
   5:quantum/rgb_matrix/animations/runners/effect_runner_i.h ****     RGB_MATRIX_USE_LIMITS(led_min, led_max);
 2825              		.loc 26 5 64 is_stmt 0 view .LVU689
 2826 0000 2DE9F74F 		push	{r0, r1, r2, r4, r5, r6, r7, r8, r9, r10, fp, lr}
 2827              		.cfi_def_cfa_offset 48
 2828              		.cfi_offset 4, -36
 2829              		.cfi_offset 5, -32
 2830              		.cfi_offset 6, -28
 2831              		.cfi_offset 7, -24
 2832              		.cfi_offset 8, -20
 2833              		.cfi_offset 9, -16
 2834              		.cfi_offset 10, -12
 2835              		.cfi_offset 11, -8
 2836              		.cfi_offset 14, -4
 2837              		.loc 26 6 5 view .LVU690
 2838 0004 0478     		ldrb	r4, [r0]	@ zero_extendqisi2
   7:quantum/rgb_matrix/animations/runners/effect_runner_i.h **** 
   8:quantum/rgb_matrix/animations/runners/effect_runner_i.h ****     uint8_t time = scale16by8(g_rgb_timer, qadd8(rgb_matrix_config.speed / 4, 1));
 2839              		.loc 26 8 67 view .LVU691
 2840 0006 DFF8A490 		ldr	r9, .L144+4
 2841              	.LBB196:
 2842              	.LBB197:
 253:./lib/lib8tion/scale8.h **** #endif
 2843              		.loc 4 253 17 view .LVU692
 2844 000a 274A     		ldr	r2, .L144
 2845              	.LBE197:
 2846              	.LBE196:
 2847              		.loc 26 8 20 view .LVU693
 2848 000c 99F80450 		ldrb	r5, [r9, #4]	@ zero_extendqisi2
 2849              	.LBB201:
 2850              	.LBB202:
   9:quantum/rgb_matrix/animations/runners/effect_runner_i.h ****     for (uint8_t i = led_min; i < led_max; i++) {
  10:quantum/rgb_matrix/animations/runners/effect_runner_i.h ****         RGB_MATRIX_TEST_LED_FLAGS();
 2851              		.loc 26 10 9 view .LVU694
 2852 0010 DFF89CB0 		ldr	fp, .L144+8
 2853              	.LBE202:
 2854              	.LBE201:
   6:quantum/rgb_matrix/animations/runners/effect_runner_i.h **** 
 2855              		.loc 26 6 5 view .LVU695
 2856 0014 04EB8404 		add	r4, r4, r4, lsl #2
 2857 0018 A400     		lsls	r4, r4, #2
 2858 001a E4B2     		uxtb	r4, r4
 2859              	.LVL197:
   6:quantum/rgb_matrix/animations/runners/effect_runner_i.h **** 
 2860              		.loc 26 6 5 is_stmt 1 view .LVU696
   8:quantum/rgb_matrix/animations/runners/effect_runner_i.h ****     for (uint8_t i = led_min; i < led_max; i++) {
 2861              		.loc 26 8 20 is_stmt 0 view .LVU697
 2862 001c AB08     		lsrs	r3, r5, #2
   6:quantum/rgb_matrix/animations/runners/effect_runner_i.h **** 
 2863              		.loc 26 6 5 view .LVU698
 2864 001e 04F11408 		add	r8, r4, #20
 2865              	.LBB204:
 2866              	.LBB198:
 253:./lib/lib8tion/scale8.h **** #endif
 2867              		.loc 4 253 17 view .LVU699
 2868 0022 1588     		ldrh	r5, [r2]
 2869              	.LBE198:
 2870              	.LBE204:
   6:quantum/rgb_matrix/animations/runners/effect_runner_i.h **** 
 2871              		.loc 26 6 5 view .LVU700
 2872 0024 5FFA88F8 		uxtb	r8, r8
 2873              	.LVL198:
   6:quantum/rgb_matrix/animations/runners/effect_runner_i.h **** 
 2874              		.loc 26 6 5 is_stmt 1 view .LVU701
 2875 0028 B8F1620F 		cmp	r8, #98
 2876              	.LBB205:
 2877              	.LBB199:
 253:./lib/lib8tion/scale8.h **** #endif
 2878              		.loc 4 253 17 is_stmt 0 view .LVU702
 2879 002c 03FB0555 		mla	r5, r3, r5, r5
 2880 0030 C246     		mov	r10, r8
 2881              	.LBE199:
 2882              	.LBE205:
   5:quantum/rgb_matrix/animations/runners/effect_runner_i.h ****     RGB_MATRIX_USE_LIMITS(led_min, led_max);
 2883              		.loc 26 5 64 view .LVU703
 2884 0032 0646     		mov	r6, r0
 2885 0034 0F46     		mov	r7, r1
 2886 0036 28BF     		it	cs
 2887 0038 4FF0620A 		movcs	r10, #98
 2888              	.LVL199:
   6:quantum/rgb_matrix/animations/runners/effect_runner_i.h **** 
 2889              		.loc 26 6 44 is_stmt 1 view .LVU704
   8:quantum/rgb_matrix/animations/runners/effect_runner_i.h ****     for (uint8_t i = led_min; i < led_max; i++) {
 2890              		.loc 26 8 5 view .LVU705
  26:./lib/lib8tion/math8.h ****     if (t > 255) t = 255;
 2891              		.loc 1 26 5 view .LVU706
  27:./lib/lib8tion/math8.h ****     return t;
 2892              		.loc 1 27 5 view .LVU707
  28:./lib/lib8tion/math8.h **** #elif QADD8_AVRASM == 1
 2893              		.loc 1 28 5 view .LVU708
 2894              	.LBB206:
 2895              	.LBI196:
 246:./lib/lib8tion/scale8.h **** {
 2896              		.loc 4 246 35 view .LVU709
 2897              	.LBB200:
 249:./lib/lib8tion/scale8.h **** #if FASTLED_SCALE8_FIXED == 1
 2898              		.loc 4 249 5 view .LVU710
 253:./lib/lib8tion/scale8.h **** #endif
 2899              		.loc 4 253 5 view .LVU711
 2900              		.loc 4 255 5 view .LVU712
 2901              		.loc 4 255 5 is_stmt 0 view .LVU713
 2902              	.LBE200:
 2903              	.LBE206:
   8:quantum/rgb_matrix/animations/runners/effect_runner_i.h ****     for (uint8_t i = led_min; i < led_max; i++) {
 2904              		.loc 26 8 13 view .LVU714
 2905 003c C5F30725 		ubfx	r5, r5, #8, #8
 2906              	.LVL200:
   9:quantum/rgb_matrix/animations/runners/effect_runner_i.h ****         RGB_MATRIX_TEST_LED_FLAGS();
 2907              		.loc 26 9 5 is_stmt 1 view .LVU715
 2908              	.LBB207:
   9:quantum/rgb_matrix/animations/runners/effect_runner_i.h ****         RGB_MATRIX_TEST_LED_FLAGS();
 2909              		.loc 26 9 10 view .LVU716
 2910              	.L140:
   9:quantum/rgb_matrix/animations/runners/effect_runner_i.h ****         RGB_MATRIX_TEST_LED_FLAGS();
 2911              		.loc 26 9 10 is_stmt 0 view .LVU717
 2912 0040 E1B2     		uxtb	r1, r4
 2913              	.LVL201:
   9:quantum/rgb_matrix/animations/runners/effect_runner_i.h ****         RGB_MATRIX_TEST_LED_FLAGS();
 2914              		.loc 26 9 31 is_stmt 1 discriminator 1 view .LVU718
   9:quantum/rgb_matrix/animations/runners/effect_runner_i.h ****         RGB_MATRIX_TEST_LED_FLAGS();
 2915              		.loc 26 9 5 is_stmt 0 discriminator 1 view .LVU719
 2916 0042 8A45     		cmp	r10, r1
 2917 0044 07D8     		bhi	.L143
 2918              	.LBE207:
  11:quantum/rgb_matrix/animations/runners/effect_runner_i.h ****         RGB rgb = rgb_matrix_hsv_to_rgb(effect_func(rgb_matrix_config.hsv, i, time));
  12:quantum/rgb_matrix/animations/runners/effect_runner_i.h ****         rgb_matrix_set_color(i, rgb.r, rgb.g, rgb.b);
  13:quantum/rgb_matrix/animations/runners/effect_runner_i.h ****     }
  14:quantum/rgb_matrix/animations/runners/effect_runner_i.h ****     return led_max < DRIVER_LED_TOTAL;
 2919              		.loc 26 14 5 is_stmt 1 view .LVU720
  15:quantum/rgb_matrix/animations/runners/effect_runner_i.h **** }
 2920              		.loc 26 15 1 is_stmt 0 view .LVU721
 2921 0046 B8F1610F 		cmp	r8, #97
 2922 004a 8CBF     		ite	hi
 2923 004c 0020     		movhi	r0, #0
 2924 004e 0120     		movls	r0, #1
 2925 0050 03B0     		add	sp, sp, #12
 2926              		.cfi_remember_state
 2927              		.cfi_def_cfa_offset 36
 2928              		@ sp needed
 2929 0052 BDE8F08F 		pop	{r4, r5, r6, r7, r8, r9, r10, fp, pc}
 2930              	.LVL202:
 2931              	.L143:
 2932              		.cfi_restore_state
 2933              	.LBB208:
 2934              	.LBB203:
  10:quantum/rgb_matrix/animations/runners/effect_runner_i.h ****         RGB rgb = rgb_matrix_hsv_to_rgb(effect_func(rgb_matrix_config.hsv, i, time));
 2935              		.loc 26 10 9 is_stmt 1 view .LVU722
 2936 0056 14F80B20 		ldrb	r2, [r4, fp]	@ zero_extendqisi2
 2937 005a 7378     		ldrb	r3, [r6, #1]	@ zero_extendqisi2
 2938 005c 1A42     		tst	r2, r3
 2939 005e 20D0     		beq	.L142
  11:quantum/rgb_matrix/animations/runners/effect_runner_i.h ****         RGB rgb = rgb_matrix_hsv_to_rgb(effect_func(rgb_matrix_config.hsv, i, time));
 2940              		.loc 26 11 9 view .LVU723
  11:quantum/rgb_matrix/animations/runners/effect_runner_i.h ****         RGB rgb = rgb_matrix_hsv_to_rgb(effect_func(rgb_matrix_config.hsv, i, time));
 2941              		.loc 26 11 19 is_stmt 0 view .LVU724
 2942 0060 99F80200 		ldrb	r0, [r9, #2]	@ zero_extendqisi2
 2943 0064 99F80130 		ldrb	r3, [r9, #1]	@ zero_extendqisi2
 2944 0068 43EA0023 		orr	r3, r3, r0, lsl #8
 2945 006c 99F80300 		ldrb	r0, [r9, #3]	@ zero_extendqisi2
 2946 0070 2A46     		mov	r2, r5
 2947 0072 43EA0040 		orr	r0, r3, r0, lsl #16
 2948 0076 B847     		blx	r7
 2949              	.LVL203:
  11:quantum/rgb_matrix/animations/runners/effect_runner_i.h ****         RGB rgb = rgb_matrix_hsv_to_rgb(effect_func(rgb_matrix_config.hsv, i, time));
 2950              		.loc 26 11 19 view .LVU725
 2951 0078 C0F30723 		ubfx	r3, r0, #8, #8
 2952 007c 8DF80400 		strb	r0, [sp, #4]
 2953 0080 C0F30740 		ubfx	r0, r0, #16, #8
 2954 0084 8DF80530 		strb	r3, [sp, #5]
 2955 0088 8DF80600 		strb	r0, [sp, #6]
 2956 008c 0198     		ldr	r0, [sp, #4]
 2957 008e FFF7FEFF 		bl	rgb_matrix_hsv_to_rgb
 2958              	.LVL204:
  12:quantum/rgb_matrix/animations/runners/effect_runner_i.h ****     }
 2959              		.loc 26 12 9 is_stmt 1 view .LVU726
 2960 0092 C0F30743 		ubfx	r3, r0, #16, #8
 2961 0096 C2B2     		uxtb	r2, r0
 2962 0098 C0F30721 		ubfx	r1, r0, #8, #8
 2963 009c 2046     		mov	r0, r4
 2964 009e FFF7FEFF 		bl	rgb_matrix_set_color
 2965              	.LVL205:
 2966              	.L142:
 2967              	.LBE203:
   9:quantum/rgb_matrix/animations/runners/effect_runner_i.h ****         RGB_MATRIX_TEST_LED_FLAGS();
 2968              		.loc 26 9 44 discriminator 2 view .LVU727
   9:quantum/rgb_matrix/animations/runners/effect_runner_i.h ****         RGB_MATRIX_TEST_LED_FLAGS();
 2969              		.loc 26 9 44 is_stmt 0 discriminator 2 view .LVU728
 2970 00a2 0134     		adds	r4, r4, #1
 2971              	.LVL206:
   9:quantum/rgb_matrix/animations/runners/effect_runner_i.h ****         RGB_MATRIX_TEST_LED_FLAGS();
 2972              		.loc 26 9 44 discriminator 2 view .LVU729
 2973 00a4 CCE7     		b	.L140
 2974              	.L145:
 2975 00a6 00BF     		.align	2
 2976              	.L144:
 2977 00a8 00000000 		.word	g_rgb_timer
 2978 00ac 00000000 		.word	rgb_matrix_config
 2979 00b0 1C010000 		.word	g_led_config+284
 2980              	.LBE208:
 2981              		.cfi_endproc
 2982              	.LFE366:
 2984              		.section	.text.BAND_SAT,"ax",%progbits
 2985              		.align	1
 2986              		.global	BAND_SAT
 2987              		.syntax unified
 2988              		.thumb
 2989              		.thumb_func
 2990              		.fpu fpv4-sp-d16
 2992              	BAND_SAT:
 2993              	.LVL207:
 2994              	.LFB374:
  10:quantum/rgb_matrix/animations/colorband_sat_anim.h **** 
  11:quantum/rgb_matrix/animations/colorband_sat_anim.h **** bool BAND_SAT(effect_params_t* params) { return effect_runner_i(params, &BAND_SAT_math); }
 2995              		.loc 3 11 40 is_stmt 1 view -0
 2996              		.cfi_startproc
 2997              		@ args = 0, pretend = 0, frame = 0
 2998              		@ frame_needed = 0, uses_anonymous_args = 0
 2999              		@ link register save eliminated.
 3000              		.loc 3 11 42 view .LVU731
 3001              		.loc 3 11 49 is_stmt 0 view .LVU732
 3002 0000 0149     		ldr	r1, .L147
 3003 0002 FFF7FEBF 		b	effect_runner_i
 3004              	.LVL208:
 3005              	.L148:
 3006              		.loc 3 11 49 view .LVU733
 3007 0006 00BF     		.align	2
 3008              	.L147:
 3009 0008 00000000 		.word	BAND_SAT_math
 3010              		.cfi_endproc
 3011              	.LFE374:
 3013              		.section	.text.BAND_VAL,"ax",%progbits
 3014              		.align	1
 3015              		.global	BAND_VAL
 3016              		.syntax unified
 3017              		.thumb
 3018              		.thumb_func
 3019              		.fpu fpv4-sp-d16
 3021              	BAND_VAL:
 3022              	.LVL209:
 3023              	.LFB376:
  10:quantum/rgb_matrix/animations/colorband_val_anim.h **** 
  11:quantum/rgb_matrix/animations/colorband_val_anim.h **** bool BAND_VAL(effect_params_t* params) { return effect_runner_i(params, &BAND_VAL_math); }
 3024              		.loc 5 11 40 is_stmt 1 view -0
 3025              		.cfi_startproc
 3026              		@ args = 0, pretend = 0, frame = 0
 3027              		@ frame_needed = 0, uses_anonymous_args = 0
 3028              		@ link register save eliminated.
 3029              		.loc 5 11 42 view .LVU735
 3030              		.loc 5 11 49 is_stmt 0 view .LVU736
 3031 0000 0149     		ldr	r1, .L150
 3032 0002 FFF7FEBF 		b	effect_runner_i
 3033              	.LVL210:
 3034              	.L151:
 3035              		.loc 5 11 49 view .LVU737
 3036 0006 00BF     		.align	2
 3037              	.L150:
 3038 0008 00000000 		.word	BAND_VAL_math
 3039              		.cfi_endproc
 3040              	.LFE376:
 3042              		.section	.text.CYCLE_ALL,"ax",%progbits
 3043              		.align	1
 3044              		.global	CYCLE_ALL
 3045              		.syntax unified
 3046              		.thumb
 3047              		.thumb_func
 3048              		.fpu fpv4-sp-d16
 3050              	CYCLE_ALL:
 3051              	.LVL211:
 3052              	.LFB386:
   9:quantum/rgb_matrix/animations/cycle_all_anim.h **** 
  10:quantum/rgb_matrix/animations/cycle_all_anim.h **** bool CYCLE_ALL(effect_params_t* params) { return effect_runner_i(params, &CYCLE_ALL_math); }
 3053              		.loc 6 10 41 is_stmt 1 view -0
 3054              		.cfi_startproc
 3055              		@ args = 0, pretend = 0, frame = 0
