   1              		.cpu cortex-m4
   2              		.eabi_attribute 27, 1
   3              		.eabi_attribute 28, 1
   4              		.eabi_attribute 20, 1
   5              		.eabi_attribute 21, 1
   6              		.eabi_attribute 23, 3
   7              		.eabi_attribute 24, 1
   8              		.eabi_attribute 25, 1
   9              		.eabi_attribute 26, 1
  10              		.eabi_attribute 30, 4
  11              		.eabi_attribute 34, 1
  12              		.eabi_attribute 18, 2
  13              		.file	"action_util.c"
  14              		.text
  15              	.Ltext0:
  16              		.cfi_sections	.debug_frame
  17              		.section	.text.add_key,"ax",%progbits
  18              		.align	1
  19              		.global	add_key
  20              		.arch armv7e-m
  21              		.syntax unified
  22              		.thumb
  23              		.thumb_func
  24              		.fpu fpv4-sp-d16
  26              	add_key:
  27              	.LVL0:
  28              	.LFB280:
  29              		.file 1 "tmk_core/common/action_util.h"
   1:tmk_core/common/action_util.h **** /*
   2:tmk_core/common/action_util.h **** Copyright 2013 Jun Wako <wakojun@gmail.com>
   3:tmk_core/common/action_util.h **** 
   4:tmk_core/common/action_util.h **** This program is free software: you can redistribute it and/or modify
   5:tmk_core/common/action_util.h **** it under the terms of the GNU General Public License as published by
   6:tmk_core/common/action_util.h **** the Free Software Foundation, either version 2 of the License, or
   7:tmk_core/common/action_util.h **** (at your option) any later version.
   8:tmk_core/common/action_util.h **** 
   9:tmk_core/common/action_util.h **** This program is distributed in the hope that it will be useful,
  10:tmk_core/common/action_util.h **** but WITHOUT ANY WARRANTY; without even the implied warranty of
  11:tmk_core/common/action_util.h **** MERCHANTABILITY or FITNESS FOR A PARTICULAR PURPOSE.  See the
  12:tmk_core/common/action_util.h **** GNU General Public License for more details.
  13:tmk_core/common/action_util.h **** 
  14:tmk_core/common/action_util.h **** You should have received a copy of the GNU General Public License
  15:tmk_core/common/action_util.h **** along with this program.  If not, see <http://www.gnu.org/licenses/>.
  16:tmk_core/common/action_util.h **** */
  17:tmk_core/common/action_util.h **** 
  18:tmk_core/common/action_util.h **** #pragma once
  19:tmk_core/common/action_util.h **** 
  20:tmk_core/common/action_util.h **** #include <stdint.h>
  21:tmk_core/common/action_util.h **** #include "report.h"
  22:tmk_core/common/action_util.h **** 
  23:tmk_core/common/action_util.h **** #ifdef __cplusplus
  24:tmk_core/common/action_util.h **** extern "C" {
  25:tmk_core/common/action_util.h **** #endif
  26:tmk_core/common/action_util.h **** 
  27:tmk_core/common/action_util.h **** extern report_keyboard_t *keyboard_report;
  28:tmk_core/common/action_util.h **** 
  29:tmk_core/common/action_util.h **** void send_keyboard_report(void);
  30:tmk_core/common/action_util.h **** 
  31:tmk_core/common/action_util.h **** /* key */
  32:tmk_core/common/action_util.h **** inline void add_key(uint8_t key) { add_key_to_report(keyboard_report, key); }
  30              		.loc 1 32 34 view -0
  31              		.cfi_startproc
  32              		@ args = 0, pretend = 0, frame = 0
  33              		@ frame_needed = 0, uses_anonymous_args = 0
  34              		@ link register save eliminated.
  35              		.loc 1 32 36 view .LVU1
  36 0000 024B     		ldr	r3, .L2
  37              		.loc 1 32 34 is_stmt 0 view .LVU2
  38 0002 0146     		mov	r1, r0
  39              		.loc 1 32 36 view .LVU3
  40 0004 1868     		ldr	r0, [r3]
  41              	.LVL1:
  42              		.loc 1 32 36 view .LVU4
  43 0006 FFF7FEBF 		b	add_key_to_report
  44              	.LVL2:
  45              	.L3:
  46 000a 00BF     		.align	2
  47              	.L2:
  48 000c 00000000 		.word	.LANCHOR0
  49              		.cfi_endproc
  50              	.LFE280:
  52              		.section	.text.del_key,"ax",%progbits
  53              		.align	1
  54              		.global	del_key
  55              		.syntax unified
  56              		.thumb
  57              		.thumb_func
  58              		.fpu fpv4-sp-d16
  60              	del_key:
  61              	.LVL3:
  62              	.LFB281:
  33:tmk_core/common/action_util.h **** 
  34:tmk_core/common/action_util.h **** inline void del_key(uint8_t key) { del_key_from_report(keyboard_report, key); }
  63              		.loc 1 34 34 is_stmt 1 view -0
  64              		.cfi_startproc
  65              		@ args = 0, pretend = 0, frame = 0
  66              		@ frame_needed = 0, uses_anonymous_args = 0
  67              		@ link register save eliminated.
  68              		.loc 1 34 36 view .LVU6
  69 0000 024B     		ldr	r3, .L5
  70              		.loc 1 34 34 is_stmt 0 view .LVU7
  71 0002 0146     		mov	r1, r0
  72              		.loc 1 34 36 view .LVU8
  73 0004 1868     		ldr	r0, [r3]
  74              	.LVL4:
  75              		.loc 1 34 36 view .LVU9
  76 0006 FFF7FEBF 		b	del_key_from_report
  77              	.LVL5:
  78              	.L6:
  79 000a 00BF     		.align	2
  80              	.L5:
  81 000c 00000000 		.word	.LANCHOR0
  82              		.cfi_endproc
  83              	.LFE281:
  85              		.section	.text.clear_keys,"ax",%progbits
  86              		.align	1
  87              		.global	clear_keys
  88              		.syntax unified
  89              		.thumb
  90              		.thumb_func
  91              		.fpu fpv4-sp-d16
  93              	clear_keys:
  94              	.LFB282:
  35:tmk_core/common/action_util.h **** 
  36:tmk_core/common/action_util.h **** inline void clear_keys(void) { clear_keys_from_report(keyboard_report); }
  95              		.loc 1 36 30 is_stmt 1 view -0
  96              		.cfi_startproc
  97              		@ args = 0, pretend = 0, frame = 0
  98              		@ frame_needed = 0, uses_anonymous_args = 0
  99              		@ link register save eliminated.
 100              		.loc 1 36 32 view .LVU11
 101 0000 014B     		ldr	r3, .L8
 102 0002 1868     		ldr	r0, [r3]
 103 0004 FFF7FEBF 		b	clear_keys_from_report
 104              	.LVL6:
 105              	.L9:
 106              		.align	2
 107              	.L8:
 108 0008 00000000 		.word	.LANCHOR0
 109              		.cfi_endproc
 110              	.LFE282:
 112              		.section	.text.get_oneshot_locked_mods,"ax",%progbits
 113              		.align	1
 114              		.global	get_oneshot_locked_mods
 115              		.syntax unified
 116              		.thumb
 117              		.thumb_func
 118              		.fpu fpv4-sp-d16
 120              	get_oneshot_locked_mods:
 121              	.LFB288:
 122              		.file 2 "tmk_core/common/action_util.c"
   1:tmk_core/common/action_util.c **** /*
   2:tmk_core/common/action_util.c **** Copyright 2013 Jun Wako <wakojun@gmail.com>
   3:tmk_core/common/action_util.c **** 
   4:tmk_core/common/action_util.c **** This program is free software: you can redistribute it and/or modify
   5:tmk_core/common/action_util.c **** it under the terms of the GNU General Public License as published by
   6:tmk_core/common/action_util.c **** the Free Software Foundation, either version 2 of the License, or
   7:tmk_core/common/action_util.c **** (at your option) any later version.
   8:tmk_core/common/action_util.c **** 
   9:tmk_core/common/action_util.c **** This program is distributed in the hope that it will be useful,
  10:tmk_core/common/action_util.c **** but WITHOUT ANY WARRANTY; without even the implied warranty of
  11:tmk_core/common/action_util.c **** MERCHANTABILITY or FITNESS FOR A PARTICULAR PURPOSE.  See the
  12:tmk_core/common/action_util.c **** GNU General Public License for more details.
  13:tmk_core/common/action_util.c **** 
  14:tmk_core/common/action_util.c **** You should have received a copy of the GNU General Public License
  15:tmk_core/common/action_util.c **** along with this program.  If not, see <http://www.gnu.org/licenses/>.
  16:tmk_core/common/action_util.c **** */
  17:tmk_core/common/action_util.c **** #include "host.h"
  18:tmk_core/common/action_util.c **** #include "report.h"
  19:tmk_core/common/action_util.c **** #include "debug.h"
  20:tmk_core/common/action_util.c **** #include "action_util.h"
  21:tmk_core/common/action_util.c **** #include "action_layer.h"
  22:tmk_core/common/action_util.c **** #include "timer.h"
  23:tmk_core/common/action_util.c **** #include "keycode_config.h"
  24:tmk_core/common/action_util.c **** 
  25:tmk_core/common/action_util.c **** extern keymap_config_t keymap_config;
  26:tmk_core/common/action_util.c **** 
  27:tmk_core/common/action_util.c **** static uint8_t real_mods  = 0;
  28:tmk_core/common/action_util.c **** static uint8_t weak_mods  = 0;
  29:tmk_core/common/action_util.c **** static uint8_t macro_mods = 0;
  30:tmk_core/common/action_util.c **** #ifdef KEY_OVERRIDE_ENABLE
  31:tmk_core/common/action_util.c **** static uint8_t weak_override_mods = 0;
  32:tmk_core/common/action_util.c **** static uint8_t suppressed_mods    = 0;
  33:tmk_core/common/action_util.c **** #endif
  34:tmk_core/common/action_util.c **** 
  35:tmk_core/common/action_util.c **** #ifdef USB_6KRO_ENABLE
  36:tmk_core/common/action_util.c **** #    define RO_ADD(a, b) ((a + b) % KEYBOARD_REPORT_KEYS)
  37:tmk_core/common/action_util.c **** #    define RO_SUB(a, b) ((a - b + KEYBOARD_REPORT_KEYS) % KEYBOARD_REPORT_KEYS)
  38:tmk_core/common/action_util.c **** #    define RO_INC(a) RO_ADD(a, 1)
  39:tmk_core/common/action_util.c **** #    define RO_DEC(a) RO_SUB(a, 1)
  40:tmk_core/common/action_util.c **** static int8_t cb_head  = 0;
  41:tmk_core/common/action_util.c **** static int8_t cb_tail  = 0;
  42:tmk_core/common/action_util.c **** static int8_t cb_count = 0;
  43:tmk_core/common/action_util.c **** #endif
  44:tmk_core/common/action_util.c **** 
  45:tmk_core/common/action_util.c **** // TODO: pointer variable is not needed
  46:tmk_core/common/action_util.c **** // report_keyboard_t keyboard_report = {};
  47:tmk_core/common/action_util.c **** report_keyboard_t *keyboard_report = &(report_keyboard_t){};
  48:tmk_core/common/action_util.c **** 
  49:tmk_core/common/action_util.c **** extern inline void add_key(uint8_t key);
  50:tmk_core/common/action_util.c **** extern inline void del_key(uint8_t key);
  51:tmk_core/common/action_util.c **** extern inline void clear_keys(void);
  52:tmk_core/common/action_util.c **** 
  53:tmk_core/common/action_util.c **** #ifndef NO_ACTION_ONESHOT
  54:tmk_core/common/action_util.c **** static uint8_t oneshot_mods        = 0;
  55:tmk_core/common/action_util.c **** static uint8_t oneshot_locked_mods = 0;
  56:tmk_core/common/action_util.c **** uint8_t        get_oneshot_locked_mods(void) { return oneshot_locked_mods; }
 123              		.loc 2 56 46 view -0
 124              		.cfi_startproc
 125              		@ args = 0, pretend = 0, frame = 0
 126              		@ frame_needed = 0, uses_anonymous_args = 0
 127              		@ link register save eliminated.
 128              		.loc 2 56 48 view .LVU13
 129              		.loc 2 56 76 is_stmt 0 view .LVU14
 130 0000 014B     		ldr	r3, .L11
 131 0002 1878     		ldrb	r0, [r3]	@ zero_extendqisi2
 132 0004 7047     		bx	lr
 133              	.L12:
 134 0006 00BF     		.align	2
 135              	.L11:
 136 0008 00000000 		.word	.LANCHOR1
 137              		.cfi_endproc
 138              	.LFE288:
 140              		.section	.text.has_oneshot_mods_timed_out,"ax",%progbits
 141              		.align	1
 142              		.global	has_oneshot_mods_timed_out
 143              		.syntax unified
 144              		.thumb
 145              		.thumb_func
 146              		.fpu fpv4-sp-d16
 148              	has_oneshot_mods_timed_out:
 149              	.LFB291:
  57:tmk_core/common/action_util.c **** void           set_oneshot_locked_mods(uint8_t mods) {
  58:tmk_core/common/action_util.c ****     if (mods != oneshot_locked_mods) {
  59:tmk_core/common/action_util.c ****         oneshot_locked_mods = mods;
  60:tmk_core/common/action_util.c ****         oneshot_locked_mods_changed_kb(oneshot_locked_mods);
  61:tmk_core/common/action_util.c ****     }
  62:tmk_core/common/action_util.c **** }
  63:tmk_core/common/action_util.c **** void clear_oneshot_locked_mods(void) {
  64:tmk_core/common/action_util.c ****     if (oneshot_locked_mods) {
  65:tmk_core/common/action_util.c ****         oneshot_locked_mods = 0;
  66:tmk_core/common/action_util.c ****         oneshot_locked_mods_changed_kb(oneshot_locked_mods);
  67:tmk_core/common/action_util.c ****     }
  68:tmk_core/common/action_util.c **** }
  69:tmk_core/common/action_util.c **** #    if (defined(ONESHOT_TIMEOUT) && (ONESHOT_TIMEOUT > 0))
  70:tmk_core/common/action_util.c **** static uint16_t oneshot_time = 0;
  71:tmk_core/common/action_util.c **** bool            has_oneshot_mods_timed_out(void) { return TIMER_DIFF_16(timer_read(), oneshot_time)
  72:tmk_core/common/action_util.c **** #    else
  73:tmk_core/common/action_util.c **** bool has_oneshot_mods_timed_out(void) { return false; }
 150              		.loc 2 73 39 is_stmt 1 view -0
 151              		.cfi_startproc
 152              		@ args = 0, pretend = 0, frame = 0
 153              		@ frame_needed = 0, uses_anonymous_args = 0
 154              		@ link register save eliminated.
 155              		.loc 2 73 41 view .LVU16
 156              		.loc 2 73 55 is_stmt 0 view .LVU17
 157 0000 0020     		movs	r0, #0
 158 0002 7047     		bx	lr
 159              		.cfi_endproc
 160              	.LFE291:
 162              		.section	.text.get_oneshot_layer,"ax",%progbits
 163              		.align	1
 164              		.global	get_oneshot_layer
 165              		.syntax unified
 166              		.thumb
 167              		.thumb_func
 168              		.fpu fpv4-sp-d16
 170              	get_oneshot_layer:
 171              	.LFB292:
  74:tmk_core/common/action_util.c **** #    endif
  75:tmk_core/common/action_util.c **** #endif
  76:tmk_core/common/action_util.c **** 
  77:tmk_core/common/action_util.c **** /* oneshot layer */
  78:tmk_core/common/action_util.c **** #ifndef NO_ACTION_ONESHOT
  79:tmk_core/common/action_util.c **** /** \brief oneshot_layer_data bits
  80:tmk_core/common/action_util.c ****  * LLLL LSSS
  81:tmk_core/common/action_util.c ****  * where:
  82:tmk_core/common/action_util.c ****  *   L => are layer bits
  83:tmk_core/common/action_util.c ****  *   S => oneshot state bits
  84:tmk_core/common/action_util.c ****  */
  85:tmk_core/common/action_util.c **** static int8_t oneshot_layer_data = 0;
  86:tmk_core/common/action_util.c **** 
  87:tmk_core/common/action_util.c **** inline uint8_t get_oneshot_layer(void) { return oneshot_layer_data >> 3; }
 172              		.loc 2 87 40 is_stmt 1 view -0
 173              		.cfi_startproc
 174              		@ args = 0, pretend = 0, frame = 0
 175              		@ frame_needed = 0, uses_anonymous_args = 0
 176              		@ link register save eliminated.
 177              		.loc 2 87 42 view .LVU19
 178              		.loc 2 87 68 is_stmt 0 view .LVU20
 179 0000 024B     		ldr	r3, .L15
 180 0002 93F90000 		ldrsb	r0, [r3]
 181              		.loc 2 87 74 view .LVU21
 182 0006 C0F3C700 		ubfx	r0, r0, #3, #8
 183 000a 7047     		bx	lr
 184              	.L16:
 185              		.align	2
 186              	.L15:
 187 000c 00000000 		.word	.LANCHOR2
 188              		.cfi_endproc
 189              	.LFE292:
 191              		.section	.text.get_oneshot_layer_state,"ax",%progbits
 192              		.align	1
 193              		.global	get_oneshot_layer_state
 194              		.syntax unified
 195              		.thumb
 196              		.thumb_func
 197              		.fpu fpv4-sp-d16
 199              	get_oneshot_layer_state:
 200              	.LFB293:
  88:tmk_core/common/action_util.c **** inline uint8_t get_oneshot_layer_state(void) { return oneshot_layer_data & 0b111; }
 201              		.loc 2 88 46 is_stmt 1 view -0
 202              		.cfi_startproc
 203              		@ args = 0, pretend = 0, frame = 0
 204              		@ frame_needed = 0, uses_anonymous_args = 0
 205              		@ link register save eliminated.
 206              		.loc 2 88 48 view .LVU23
 207              		.loc 2 88 74 is_stmt 0 view .LVU24
 208 0000 024B     		ldr	r3, .L18
 209 0002 1878     		ldrb	r0, [r3]	@ zero_extendqisi2
 210              		.loc 2 88 83 view .LVU25
 211 0004 00F00700 		and	r0, r0, #7
 212 0008 7047     		bx	lr
 213              	.L19:
 214 000a 00BF     		.align	2
 215              	.L18:
 216 000c 00000000 		.word	.LANCHOR2
 217              		.cfi_endproc
 218              	.LFE293:
 220              		.section	.text.is_oneshot_layer_active,"ax",%progbits
 221              		.align	1
 222              		.global	is_oneshot_layer_active
 223              		.syntax unified
 224              		.thumb
 225              		.thumb_func
 226              		.fpu fpv4-sp-d16
 228              	is_oneshot_layer_active:
 229              	.LFB297:
  89:tmk_core/common/action_util.c **** 
  90:tmk_core/common/action_util.c **** #    ifdef SWAP_HANDS_ENABLE
  91:tmk_core/common/action_util.c **** enum {
  92:tmk_core/common/action_util.c ****     SHO_OFF,
  93:tmk_core/common/action_util.c ****     SHO_ACTIVE,   // Swap hands button was pressed, and we didn't send any swapped keys yet
  94:tmk_core/common/action_util.c ****     SHO_PRESSED,  // Swap hands button is currently pressed
  95:tmk_core/common/action_util.c ****     SHO_USED,     // Swap hands button is still pressed, and we already sent swapped keys
  96:tmk_core/common/action_util.c **** } swap_hands_oneshot = SHO_OFF;
  97:tmk_core/common/action_util.c **** #    endif
  98:tmk_core/common/action_util.c **** 
  99:tmk_core/common/action_util.c **** #    if (defined(ONESHOT_TIMEOUT) && (ONESHOT_TIMEOUT > 0))
 100:tmk_core/common/action_util.c **** static uint16_t oneshot_layer_time = 0;
 101:tmk_core/common/action_util.c **** inline bool     has_oneshot_layer_timed_out() { return TIMER_DIFF_16(timer_read(), oneshot_layer_ti
 102:tmk_core/common/action_util.c **** #        ifdef SWAP_HANDS_ENABLE
 103:tmk_core/common/action_util.c **** static uint16_t oneshot_swaphands_time = 0;
 104:tmk_core/common/action_util.c **** inline bool     has_oneshot_swaphands_timed_out() { return TIMER_DIFF_16(timer_read(), oneshot_swap
 105:tmk_core/common/action_util.c **** #        endif
 106:tmk_core/common/action_util.c **** #    endif
 107:tmk_core/common/action_util.c **** 
 108:tmk_core/common/action_util.c **** #    ifdef SWAP_HANDS_ENABLE
 109:tmk_core/common/action_util.c **** 
 110:tmk_core/common/action_util.c **** void set_oneshot_swaphands(void) {
 111:tmk_core/common/action_util.c ****     swap_hands_oneshot = SHO_PRESSED;
 112:tmk_core/common/action_util.c ****     swap_hands         = true;
 113:tmk_core/common/action_util.c **** #        if (defined(ONESHOT_TIMEOUT) && (ONESHOT_TIMEOUT > 0))
 114:tmk_core/common/action_util.c ****     oneshot_swaphands_time = timer_read();
 115:tmk_core/common/action_util.c ****     if (oneshot_layer_time != 0) {
 116:tmk_core/common/action_util.c ****         oneshot_layer_time = oneshot_swaphands_time;
 117:tmk_core/common/action_util.c ****     }
 118:tmk_core/common/action_util.c **** #        endif
 119:tmk_core/common/action_util.c **** }
 120:tmk_core/common/action_util.c **** 
 121:tmk_core/common/action_util.c **** void release_oneshot_swaphands(void) {
 122:tmk_core/common/action_util.c ****     if (swap_hands_oneshot == SHO_PRESSED) {
 123:tmk_core/common/action_util.c ****         swap_hands_oneshot = SHO_ACTIVE;
 124:tmk_core/common/action_util.c ****     }
 125:tmk_core/common/action_util.c ****     if (swap_hands_oneshot == SHO_USED) {
 126:tmk_core/common/action_util.c ****         clear_oneshot_swaphands();
 127:tmk_core/common/action_util.c ****     }
 128:tmk_core/common/action_util.c **** }
 129:tmk_core/common/action_util.c **** 
 130:tmk_core/common/action_util.c **** void use_oneshot_swaphands(void) {
 131:tmk_core/common/action_util.c ****     if (swap_hands_oneshot == SHO_PRESSED) {
 132:tmk_core/common/action_util.c ****         swap_hands_oneshot = SHO_USED;
 133:tmk_core/common/action_util.c ****     }
 134:tmk_core/common/action_util.c ****     if (swap_hands_oneshot == SHO_ACTIVE) {
 135:tmk_core/common/action_util.c ****         clear_oneshot_swaphands();
 136:tmk_core/common/action_util.c ****     }
 137:tmk_core/common/action_util.c **** }
 138:tmk_core/common/action_util.c **** 
 139:tmk_core/common/action_util.c **** void clear_oneshot_swaphands(void) {
 140:tmk_core/common/action_util.c ****     swap_hands_oneshot = SHO_OFF;
 141:tmk_core/common/action_util.c ****     swap_hands         = false;
 142:tmk_core/common/action_util.c **** #        if (defined(ONESHOT_TIMEOUT) && (ONESHOT_TIMEOUT > 0))
 143:tmk_core/common/action_util.c ****     oneshot_swaphands_time = 0;
 144:tmk_core/common/action_util.c **** #        endif
 145:tmk_core/common/action_util.c **** }
 146:tmk_core/common/action_util.c **** 
 147:tmk_core/common/action_util.c **** #    endif
 148:tmk_core/common/action_util.c **** 
 149:tmk_core/common/action_util.c **** /** \brief Set oneshot layer
 150:tmk_core/common/action_util.c ****  *
 151:tmk_core/common/action_util.c ****  * FIXME: needs doc
 152:tmk_core/common/action_util.c ****  */
 153:tmk_core/common/action_util.c **** void set_oneshot_layer(uint8_t layer, uint8_t state) {
 154:tmk_core/common/action_util.c ****     if (!keymap_config.oneshot_disable) {
 155:tmk_core/common/action_util.c ****         oneshot_layer_data = layer << 3 | state;
 156:tmk_core/common/action_util.c ****         layer_on(layer);
 157:tmk_core/common/action_util.c **** #    if (defined(ONESHOT_TIMEOUT) && (ONESHOT_TIMEOUT > 0))
 158:tmk_core/common/action_util.c ****         oneshot_layer_time = timer_read();
 159:tmk_core/common/action_util.c **** #    endif
 160:tmk_core/common/action_util.c ****         oneshot_layer_changed_kb(get_oneshot_layer());
 161:tmk_core/common/action_util.c ****     } else {
 162:tmk_core/common/action_util.c ****         layer_on(layer);
 163:tmk_core/common/action_util.c ****     }
 164:tmk_core/common/action_util.c **** }
 165:tmk_core/common/action_util.c **** /** \brief Reset oneshot layer
 166:tmk_core/common/action_util.c ****  *
 167:tmk_core/common/action_util.c ****  * FIXME: needs doc
 168:tmk_core/common/action_util.c ****  */
 169:tmk_core/common/action_util.c **** void reset_oneshot_layer(void) {
 170:tmk_core/common/action_util.c ****     oneshot_layer_data = 0;
 171:tmk_core/common/action_util.c **** #    if (defined(ONESHOT_TIMEOUT) && (ONESHOT_TIMEOUT > 0))
 172:tmk_core/common/action_util.c ****     oneshot_layer_time = 0;
 173:tmk_core/common/action_util.c **** #    endif
 174:tmk_core/common/action_util.c ****     oneshot_layer_changed_kb(get_oneshot_layer());
 175:tmk_core/common/action_util.c **** }
 176:tmk_core/common/action_util.c **** /** \brief Clear oneshot layer
 177:tmk_core/common/action_util.c ****  *
 178:tmk_core/common/action_util.c ****  * FIXME: needs doc
 179:tmk_core/common/action_util.c ****  */
 180:tmk_core/common/action_util.c **** void clear_oneshot_layer_state(oneshot_fullfillment_t state) {
 181:tmk_core/common/action_util.c ****     uint8_t start_state = oneshot_layer_data;
 182:tmk_core/common/action_util.c ****     oneshot_layer_data &= ~state;
 183:tmk_core/common/action_util.c ****     if ((!get_oneshot_layer_state() && start_state != oneshot_layer_data) || keymap_config.oneshot_
 184:tmk_core/common/action_util.c ****         layer_off(get_oneshot_layer());
 185:tmk_core/common/action_util.c ****         reset_oneshot_layer();
 186:tmk_core/common/action_util.c ****     }
 187:tmk_core/common/action_util.c **** }
 188:tmk_core/common/action_util.c **** /** \brief Is oneshot layer active
 189:tmk_core/common/action_util.c ****  *
 190:tmk_core/common/action_util.c ****  * FIXME: needs doc
 191:tmk_core/common/action_util.c ****  */
 192:tmk_core/common/action_util.c **** bool is_oneshot_layer_active(void) { return get_oneshot_layer_state(); }
 230              		.loc 2 192 36 is_stmt 1 view -0
 231              		.cfi_startproc
 232              		@ args = 0, pretend = 0, frame = 0
 233              		@ frame_needed = 0, uses_anonymous_args = 0
 234              		@ link register save eliminated.
 235              		.loc 2 192 38 view .LVU27
 236              	.LBB12:
 237              	.LBI12:
  88:tmk_core/common/action_util.c **** inline uint8_t get_oneshot_layer_state(void) { return oneshot_layer_data & 0b111; }
 238              		.loc 2 88 16 view .LVU28
 239              	.LBB13:
  88:tmk_core/common/action_util.c **** inline uint8_t get_oneshot_layer_state(void) { return oneshot_layer_data & 0b111; }
 240              		.loc 2 88 48 view .LVU29
  88:tmk_core/common/action_util.c **** inline uint8_t get_oneshot_layer_state(void) { return oneshot_layer_data & 0b111; }
 241              		.loc 2 88 74 is_stmt 0 view .LVU30
 242 0000 034B     		ldr	r3, .L21
 243 0002 1878     		ldrb	r0, [r3]	@ zero_extendqisi2
 244              	.LBE13:
 245              	.LBE12:
 246              		.loc 2 192 72 view .LVU31
 247 0004 10F00700 		ands	r0, r0, #7
 248 0008 18BF     		it	ne
 249 000a 0120     		movne	r0, #1
 250 000c 7047     		bx	lr
 251              	.L22:
 252 000e 00BF     		.align	2
 253              	.L21:
 254 0010 00000000 		.word	.LANCHOR2
 255              		.cfi_endproc
 256              	.LFE297:
 258              		.section	.rodata.oneshot_set.str1.1,"aMS",%progbits,1
 259              	.LC0:
 260 0000 4F6E6573 		.ascii	"Oneshot: active: %d\012\000"
 260      686F743A 
 260      20616374 
 260      6976653A 
 260      2025640A 
 261              		.section	.text.oneshot_set,"ax",%progbits
 262              		.align	1
 263              		.global	oneshot_set
 264              		.syntax unified
 265              		.thumb
 266              		.thumb_func
 267              		.fpu fpv4-sp-d16
 269              	oneshot_set:
 270              	.LVL7:
 271              	.LFB298:
 193:tmk_core/common/action_util.c **** 
 194:tmk_core/common/action_util.c **** /** \brief set oneshot
 195:tmk_core/common/action_util.c ****  *
 196:tmk_core/common/action_util.c ****  * FIXME: needs doc
 197:tmk_core/common/action_util.c ****  */
 198:tmk_core/common/action_util.c **** void oneshot_set(bool active) {
 272              		.loc 2 198 31 is_stmt 1 view -0
 273              		.cfi_startproc
 274              		@ args = 0, pretend = 0, frame = 0
 275              		@ frame_needed = 0, uses_anonymous_args = 0
 199:tmk_core/common/action_util.c ****     if (keymap_config.oneshot_disable != active) {
 276              		.loc 2 199 5 view .LVU33
 277              		.loc 2 199 22 is_stmt 0 view .LVU34
 278 0000 0C4A     		ldr	r2, .L30
 279 0002 5378     		ldrb	r3, [r2, #1]	@ zero_extendqisi2
 280              		.loc 2 199 8 view .LVU35
 281 0004 C3F38001 		ubfx	r1, r3, #2, #1
 282 0008 8142     		cmp	r1, r0
 198:tmk_core/common/action_util.c ****     if (keymap_config.oneshot_disable != active) {
 283              		.loc 2 198 31 view .LVU36
 284 000a 10B5     		push	{r4, lr}
 285              		.cfi_def_cfa_offset 8
 286              		.cfi_offset 4, -8
 287              		.cfi_offset 14, -4
 198:tmk_core/common/action_util.c ****     if (keymap_config.oneshot_disable != active) {
 288              		.loc 2 198 31 view .LVU37
 289 000c 0446     		mov	r4, r0
 290              		.loc 2 199 8 view .LVU38
 291 000e 0FD0     		beq	.L23
 292              	.LVL8:
 293              	.LBB16:
 294              	.LBI16:
 198:tmk_core/common/action_util.c ****     if (keymap_config.oneshot_disable != active) {
 295              		.loc 2 198 6 is_stmt 1 view .LVU39
 296              	.LBB17:
 200:tmk_core/common/action_util.c ****         keymap_config.oneshot_disable = active;
 297              		.loc 2 200 9 view .LVU40
 298              		.loc 2 200 39 is_stmt 0 view .LVU41
 299 0010 60F38203 		bfi	r3, r0, #2, #1
 300 0014 5370     		strb	r3, [r2, #1]
 201:tmk_core/common/action_util.c ****         eeconfig_update_keymap(keymap_config.raw);
 301              		.loc 2 201 9 is_stmt 1 view .LVU42
 302 0016 1088     		ldrh	r0, [r2]
 303              	.LVL9:
 304              		.loc 2 201 9 is_stmt 0 view .LVU43
 305 0018 FFF7FEFF 		bl	eeconfig_update_keymap
 306              	.LVL10:
 202:tmk_core/common/action_util.c ****         dprintf("Oneshot: active: %d\n", active);
 307              		.loc 2 202 9 is_stmt 1 view .LVU44
 308              		.loc 2 202 9 view .LVU45
 309 001c 064B     		ldr	r3, .L30+4
 310 001e 1B78     		ldrb	r3, [r3]	@ zero_extendqisi2
 311 0020 DB07     		lsls	r3, r3, #31
 312 0022 05D5     		bpl	.L23
 313              		.loc 2 202 9 view .LVU46
 314 0024 2146     		mov	r1, r4
 315 0026 0548     		ldr	r0, .L30+8
 316              	.LBE17:
 317              	.LBE16:
 203:tmk_core/common/action_util.c ****     }
 204:tmk_core/common/action_util.c **** }
 318              		.loc 2 204 1 is_stmt 0 view .LVU47
 319 0028 BDE81040 		pop	{r4, lr}
 320              		.cfi_remember_state
 321              		.cfi_restore 14
 322              		.cfi_restore 4
 323              		.cfi_def_cfa_offset 0
 324              	.LBB19:
 325              	.LBB18:
 202:tmk_core/common/action_util.c ****         dprintf("Oneshot: active: %d\n", active);
 326              		.loc 2 202 9 view .LVU48
 327 002c FFF7FEBF 		b	printf_
 328              	.LVL11:
 329              	.L23:
 330              		.cfi_restore_state
 202:tmk_core/common/action_util.c ****         dprintf("Oneshot: active: %d\n", active);
 331              		.loc 2 202 9 view .LVU49
 332              	.LBE18:
 333              	.LBE19:
 334              		.loc 2 204 1 view .LVU50
 335 0030 10BD     		pop	{r4, pc}
 336              	.L31:
 337 0032 00BF     		.align	2
 338              	.L30:
 339 0034 00000000 		.word	keymap_config
 340 0038 00000000 		.word	debug_config
 341 003c 00000000 		.word	.LC0
 342              		.cfi_endproc
 343              	.LFE298:
 345              		.section	.text.oneshot_toggle,"ax",%progbits
 346              		.align	1
 347              		.global	oneshot_toggle
 348              		.syntax unified
 349              		.thumb
 350              		.thumb_func
 351              		.fpu fpv4-sp-d16
 353              	oneshot_toggle:
 354              	.LFB299:
 205:tmk_core/common/action_util.c **** 
 206:tmk_core/common/action_util.c **** /** \brief toggle oneshot
 207:tmk_core/common/action_util.c ****  *
 208:tmk_core/common/action_util.c ****  * FIXME: needs doc
 209:tmk_core/common/action_util.c ****  */
 210:tmk_core/common/action_util.c **** void oneshot_toggle(void) { oneshot_set(!keymap_config.oneshot_disable); }
 355              		.loc 2 210 27 is_stmt 1 view -0
 356              		.cfi_startproc
 357              		@ args = 0, pretend = 0, frame = 0
 358              		@ frame_needed = 0, uses_anonymous_args = 0
 359              		@ link register save eliminated.
 360              		.loc 2 210 29 view .LVU52
 361              		.loc 2 210 55 is_stmt 0 view .LVU53
 362 0000 044B     		ldr	r3, .L33
 363 0002 5878     		ldrb	r0, [r3, #1]	@ zero_extendqisi2
 364 0004 C0F38000 		ubfx	r0, r0, #2, #1
 365              		.loc 2 210 1 view .LVU54
 366 0008 80F00100 		eor	r0, r0, #1
 367              		.loc 2 210 29 view .LVU55
 368 000c 00F00100 		and	r0, r0, #1
 369 0010 FFF7FEBF 		b	oneshot_set
 370              	.LVL12:
 371              	.L34:
 372              		.align	2
 373              	.L33:
 374 0014 00000000 		.word	keymap_config
 375              		.cfi_endproc
 376              	.LFE299:
 378              		.section	.text.oneshot_enable,"ax",%progbits
 379              		.align	1
 380              		.global	oneshot_enable
 381              		.syntax unified
 382              		.thumb
 383              		.thumb_func
 384              		.fpu fpv4-sp-d16
 386              	oneshot_enable:
 387              	.LFB300:
 211:tmk_core/common/action_util.c **** 
 212:tmk_core/common/action_util.c **** /** \brief enable oneshot
 213:tmk_core/common/action_util.c ****  *
 214:tmk_core/common/action_util.c ****  * FIXME: needs doc
 215:tmk_core/common/action_util.c ****  */
 216:tmk_core/common/action_util.c **** void oneshot_enable(void) { oneshot_set(true); }
 388              		.loc 2 216 27 is_stmt 1 view -0
 389              		.cfi_startproc
 390              		@ args = 0, pretend = 0, frame = 0
 391              		@ frame_needed = 0, uses_anonymous_args = 0
 392              		@ link register save eliminated.
 393              		.loc 2 216 29 view .LVU57
 394 0000 0120     		movs	r0, #1
 395 0002 FFF7FEBF 		b	oneshot_set
 396              	.LVL13:
 397              		.cfi_endproc
 398              	.LFE300:
 400              		.section	.text.oneshot_disable,"ax",%progbits
 401              		.align	1
 402              		.global	oneshot_disable
 403              		.syntax unified
 404              		.thumb
 405              		.thumb_func
 406              		.fpu fpv4-sp-d16
 408              	oneshot_disable:
 409              	.LFB301:
 217:tmk_core/common/action_util.c **** 
 218:tmk_core/common/action_util.c **** /** \brief disable oneshot
 219:tmk_core/common/action_util.c ****  *
 220:tmk_core/common/action_util.c ****  * FIXME: needs doc
 221:tmk_core/common/action_util.c ****  */
 222:tmk_core/common/action_util.c **** void oneshot_disable(void) { oneshot_set(false); }
 410              		.loc 2 222 28 view -0
 411              		.cfi_startproc
 412              		@ args = 0, pretend = 0, frame = 0
 413              		@ frame_needed = 0, uses_anonymous_args = 0
 414              		@ link register save eliminated.
 415              		.loc 2 222 30 view .LVU59
 416 0000 0020     		movs	r0, #0
 417 0002 FFF7FEBF 		b	oneshot_set
 418              	.LVL14:
 419              		.cfi_endproc
 420              	.LFE301:
 422              		.section	.text.is_oneshot_enabled,"ax",%progbits
 423              		.align	1
 424              		.global	is_oneshot_enabled
 425              		.syntax unified
 426              		.thumb
 427              		.thumb_func
 428              		.fpu fpv4-sp-d16
 430              	is_oneshot_enabled:
 431              	.LFB302:
 223:tmk_core/common/action_util.c **** 
 224:tmk_core/common/action_util.c **** bool is_oneshot_enabled(void) { return keymap_config.oneshot_disable; }
 432              		.loc 2 224 31 view -0
 433              		.cfi_startproc
 434              		@ args = 0, pretend = 0, frame = 0
 435              		@ frame_needed = 0, uses_anonymous_args = 0
 436              		@ link register save eliminated.
 437              		.loc 2 224 33 view .LVU61
 438              		.loc 2 224 53 is_stmt 0 view .LVU62
 439 0000 024B     		ldr	r3, .L38
 440 0002 5878     		ldrb	r0, [r3, #1]	@ zero_extendqisi2
 441              		.loc 2 224 71 view .LVU63
 442 0004 C0F38000 		ubfx	r0, r0, #2, #1
 443 0008 7047     		bx	lr
 444              	.L39:
 445 000a 00BF     		.align	2
 446              	.L38:
 447 000c 00000000 		.word	keymap_config
 448              		.cfi_endproc
 449              	.LFE302:
 451              		.section	.text.get_mods,"ax",%progbits
 452              		.align	1
 453              		.global	get_mods
 454              		.syntax unified
 455              		.thumb
 456              		.thumb_func
 457              		.fpu fpv4-sp-d16
 459              	get_mods:
 460              	.LFB304:
 225:tmk_core/common/action_util.c **** 
 226:tmk_core/common/action_util.c **** #endif
 227:tmk_core/common/action_util.c **** 
 228:tmk_core/common/action_util.c **** /** \brief Send keyboard report
 229:tmk_core/common/action_util.c ****  *
 230:tmk_core/common/action_util.c ****  * FIXME: needs doc
 231:tmk_core/common/action_util.c ****  */
 232:tmk_core/common/action_util.c **** void send_keyboard_report(void) {
 233:tmk_core/common/action_util.c ****     keyboard_report->mods = real_mods;
 234:tmk_core/common/action_util.c ****     keyboard_report->mods |= weak_mods;
 235:tmk_core/common/action_util.c ****     keyboard_report->mods |= macro_mods;
 236:tmk_core/common/action_util.c **** 
 237:tmk_core/common/action_util.c **** #ifndef NO_ACTION_ONESHOT
 238:tmk_core/common/action_util.c ****     if (oneshot_mods) {
 239:tmk_core/common/action_util.c **** #    if (defined(ONESHOT_TIMEOUT) && (ONESHOT_TIMEOUT > 0))
 240:tmk_core/common/action_util.c ****         if (has_oneshot_mods_timed_out()) {
 241:tmk_core/common/action_util.c ****             dprintf("Oneshot: timeout\n");
 242:tmk_core/common/action_util.c ****             clear_oneshot_mods();
 243:tmk_core/common/action_util.c ****         }
 244:tmk_core/common/action_util.c **** #    endif
 245:tmk_core/common/action_util.c ****         keyboard_report->mods |= oneshot_mods;
 246:tmk_core/common/action_util.c ****         if (has_anykey(keyboard_report)) {
 247:tmk_core/common/action_util.c ****             clear_oneshot_mods();
 248:tmk_core/common/action_util.c ****         }
 249:tmk_core/common/action_util.c ****     }
 250:tmk_core/common/action_util.c **** 
 251:tmk_core/common/action_util.c **** #endif
 252:tmk_core/common/action_util.c **** 
 253:tmk_core/common/action_util.c **** #ifdef KEY_OVERRIDE_ENABLE
 254:tmk_core/common/action_util.c ****     // These need to be last to be able to properly control key overrides
 255:tmk_core/common/action_util.c ****     keyboard_report->mods &= ~suppressed_mods;
 256:tmk_core/common/action_util.c ****     keyboard_report->mods |= weak_override_mods;
 257:tmk_core/common/action_util.c **** #endif
 258:tmk_core/common/action_util.c **** 
 259:tmk_core/common/action_util.c ****     host_keyboard_send(keyboard_report);
 260:tmk_core/common/action_util.c **** }
 261:tmk_core/common/action_util.c **** 
 262:tmk_core/common/action_util.c **** /** \brief Get mods
 263:tmk_core/common/action_util.c ****  *
 264:tmk_core/common/action_util.c ****  * FIXME: needs doc
 265:tmk_core/common/action_util.c ****  */
 266:tmk_core/common/action_util.c **** uint8_t get_mods(void) { return real_mods; }
 461              		.loc 2 266 24 is_stmt 1 view -0
 462              		.cfi_startproc
 463              		@ args = 0, pretend = 0, frame = 0
 464              		@ frame_needed = 0, uses_anonymous_args = 0
 465              		@ link register save eliminated.
 466              		.loc 2 266 26 view .LVU65
 467              		.loc 2 266 44 is_stmt 0 view .LVU66
 468 0000 014B     		ldr	r3, .L41
 469 0002 1878     		ldrb	r0, [r3]	@ zero_extendqisi2
 470 0004 7047     		bx	lr
 471              	.L42:
 472 0006 00BF     		.align	2
 473              	.L41:
 474 0008 00000000 		.word	.LANCHOR3
 475              		.cfi_endproc
 476              	.LFE304:
 478              		.section	.text.add_mods,"ax",%progbits
 479              		.align	1
 480              		.global	add_mods
 481              		.syntax unified
 482              		.thumb
 483              		.thumb_func
 484              		.fpu fpv4-sp-d16
 486              	add_mods:
 487              	.LVL15:
 488              	.LFB305:
 267:tmk_core/common/action_util.c **** /** \brief add mods
 268:tmk_core/common/action_util.c ****  *
 269:tmk_core/common/action_util.c ****  * FIXME: needs doc
 270:tmk_core/common/action_util.c ****  */
 271:tmk_core/common/action_util.c **** void add_mods(uint8_t mods) { real_mods |= mods; }
 489              		.loc 2 271 29 is_stmt 1 view -0
 490              		.cfi_startproc
 491              		@ args = 0, pretend = 0, frame = 0
 492              		@ frame_needed = 0, uses_anonymous_args = 0
 493              		@ link register save eliminated.
 494              		.loc 2 271 31 view .LVU68
 495              		.loc 2 271 41 is_stmt 0 view .LVU69
 496 0000 024B     		ldr	r3, .L44
 497 0002 1A78     		ldrb	r2, [r3]	@ zero_extendqisi2
 498 0004 1043     		orrs	r0, r0, r2
 499              	.LVL16:
 500              		.loc 2 271 41 view .LVU70
 501 0006 1870     		strb	r0, [r3]
 502              		.loc 2 271 50 view .LVU71
 503 0008 7047     		bx	lr
 504              	.L45:
 505 000a 00BF     		.align	2
 506              	.L44:
 507 000c 00000000 		.word	.LANCHOR3
 508              		.cfi_endproc
 509              	.LFE305:
 511              		.section	.text.del_mods,"ax",%progbits
 512              		.align	1
 513              		.global	del_mods
 514              		.syntax unified
 515              		.thumb
 516              		.thumb_func
 517              		.fpu fpv4-sp-d16
 519              	del_mods:
 520              	.LVL17:
 521              	.LFB306:
 272:tmk_core/common/action_util.c **** /** \brief del mods
 273:tmk_core/common/action_util.c ****  *
 274:tmk_core/common/action_util.c ****  * FIXME: needs doc
 275:tmk_core/common/action_util.c ****  */
 276:tmk_core/common/action_util.c **** void del_mods(uint8_t mods) { real_mods &= ~mods; }
 522              		.loc 2 276 29 is_stmt 1 view -0
 523              		.cfi_startproc
 524              		@ args = 0, pretend = 0, frame = 0
 525              		@ frame_needed = 0, uses_anonymous_args = 0
 526              		@ link register save eliminated.
 527              		.loc 2 276 31 view .LVU73
 528              		.loc 2 276 41 is_stmt 0 view .LVU74
 529 0000 024A     		ldr	r2, .L47
 530 0002 1378     		ldrb	r3, [r2]	@ zero_extendqisi2
 531 0004 23EA0000 		bic	r0, r3, r0
 532              	.LVL18:
 533              		.loc 2 276 41 view .LVU75
 534 0008 1070     		strb	r0, [r2]
 535              		.loc 2 276 51 view .LVU76
 536 000a 7047     		bx	lr
 537              	.L48:
 538              		.align	2
 539              	.L47:
 540 000c 00000000 		.word	.LANCHOR3
 541              		.cfi_endproc
 542              	.LFE306:
 544              		.section	.text.set_mods,"ax",%progbits
 545              		.align	1
 546              		.global	set_mods
 547              		.syntax unified
 548              		.thumb
 549              		.thumb_func
 550              		.fpu fpv4-sp-d16
 552              	set_mods:
 553              	.LVL19:
 554              	.LFB307:
 277:tmk_core/common/action_util.c **** /** \brief set mods
 278:tmk_core/common/action_util.c ****  *
 279:tmk_core/common/action_util.c ****  * FIXME: needs doc
 280:tmk_core/common/action_util.c ****  */
 281:tmk_core/common/action_util.c **** void set_mods(uint8_t mods) { real_mods = mods; }
 555              		.loc 2 281 29 is_stmt 1 view -0
 556              		.cfi_startproc
 557              		@ args = 0, pretend = 0, frame = 0
 558              		@ frame_needed = 0, uses_anonymous_args = 0
 559              		@ link register save eliminated.
 560              		.loc 2 281 31 view .LVU78
 561              		.loc 2 281 41 is_stmt 0 view .LVU79
 562 0000 014B     		ldr	r3, .L50
 563 0002 1870     		strb	r0, [r3]
 564              		.loc 2 281 49 view .LVU80
 565 0004 7047     		bx	lr
 566              	.L51:
 567 0006 00BF     		.align	2
 568              	.L50:
 569 0008 00000000 		.word	.LANCHOR3
 570              		.cfi_endproc
 571              	.LFE307:
 573              		.section	.text.clear_mods,"ax",%progbits
 574              		.align	1
 575              		.global	clear_mods
 576              		.syntax unified
 577              		.thumb
 578              		.thumb_func
 579              		.fpu fpv4-sp-d16
 581              	clear_mods:
 582              	.LFB308:
 282:tmk_core/common/action_util.c **** /** \brief clear mods
 283:tmk_core/common/action_util.c ****  *
 284:tmk_core/common/action_util.c ****  * FIXME: needs doc
 285:tmk_core/common/action_util.c ****  */
 286:tmk_core/common/action_util.c **** void clear_mods(void) { real_mods = 0; }
 583              		.loc 2 286 23 is_stmt 1 view -0
 584              		.cfi_startproc
 585              		@ args = 0, pretend = 0, frame = 0
 586              		@ frame_needed = 0, uses_anonymous_args = 0
 587              		@ link register save eliminated.
 588              		.loc 2 286 25 view .LVU82
 589              		.loc 2 286 35 is_stmt 0 view .LVU83
 590 0000 014B     		ldr	r3, .L53
 591 0002 0022     		movs	r2, #0
 592 0004 1A70     		strb	r2, [r3]
 593              		.loc 2 286 40 view .LVU84
 594 0006 7047     		bx	lr
 595              	.L54:
 596              		.align	2
 597              	.L53:
 598 0008 00000000 		.word	.LANCHOR3
 599              		.cfi_endproc
 600              	.LFE308:
 602              		.section	.text.get_weak_mods,"ax",%progbits
 603              		.align	1
 604              		.global	get_weak_mods
 605              		.syntax unified
 606              		.thumb
 607              		.thumb_func
 608              		.fpu fpv4-sp-d16
 610              	get_weak_mods:
 611              	.LFB309:
 287:tmk_core/common/action_util.c **** 
 288:tmk_core/common/action_util.c **** /** \brief get weak mods
 289:tmk_core/common/action_util.c ****  *
 290:tmk_core/common/action_util.c ****  * FIXME: needs doc
 291:tmk_core/common/action_util.c ****  */
 292:tmk_core/common/action_util.c **** uint8_t get_weak_mods(void) { return weak_mods; }
 612              		.loc 2 292 29 is_stmt 1 view -0
 613              		.cfi_startproc
 614              		@ args = 0, pretend = 0, frame = 0
 615              		@ frame_needed = 0, uses_anonymous_args = 0
 616              		@ link register save eliminated.
 617              		.loc 2 292 31 view .LVU86
 618              		.loc 2 292 49 is_stmt 0 view .LVU87
 619 0000 014B     		ldr	r3, .L56
 620 0002 1878     		ldrb	r0, [r3]	@ zero_extendqisi2
 621 0004 7047     		bx	lr
 622              	.L57:
 623 0006 00BF     		.align	2
 624              	.L56:
 625 0008 00000000 		.word	.LANCHOR4
 626              		.cfi_endproc
 627              	.LFE309:
 629              		.section	.text.add_weak_mods,"ax",%progbits
 630              		.align	1
 631              		.global	add_weak_mods
 632              		.syntax unified
 633              		.thumb
 634              		.thumb_func
 635              		.fpu fpv4-sp-d16
 637              	add_weak_mods:
 638              	.LVL20:
 639              	.LFB310:
 293:tmk_core/common/action_util.c **** /** \brief add weak mods
 294:tmk_core/common/action_util.c ****  *
 295:tmk_core/common/action_util.c ****  * FIXME: needs doc
 296:tmk_core/common/action_util.c ****  */
 297:tmk_core/common/action_util.c **** void add_weak_mods(uint8_t mods) { weak_mods |= mods; }
 640              		.loc 2 297 34 is_stmt 1 view -0
 641              		.cfi_startproc
 642              		@ args = 0, pretend = 0, frame = 0
 643              		@ frame_needed = 0, uses_anonymous_args = 0
 644              		@ link register save eliminated.
 645              		.loc 2 297 36 view .LVU89
 646              		.loc 2 297 46 is_stmt 0 view .LVU90
 647 0000 024B     		ldr	r3, .L59
 648 0002 1A78     		ldrb	r2, [r3]	@ zero_extendqisi2
 649 0004 1043     		orrs	r0, r0, r2
 650              	.LVL21:
 651              		.loc 2 297 46 view .LVU91
 652 0006 1870     		strb	r0, [r3]
 653              		.loc 2 297 55 view .LVU92
 654 0008 7047     		bx	lr
 655              	.L60:
 656 000a 00BF     		.align	2
 657              	.L59:
 658 000c 00000000 		.word	.LANCHOR4
 659              		.cfi_endproc
 660              	.LFE310:
 662              		.section	.text.del_weak_mods,"ax",%progbits
 663              		.align	1
 664              		.global	del_weak_mods
 665              		.syntax unified
 666              		.thumb
 667              		.thumb_func
 668              		.fpu fpv4-sp-d16
 670              	del_weak_mods:
 671              	.LVL22:
 672              	.LFB311:
 298:tmk_core/common/action_util.c **** /** \brief del weak mods
 299:tmk_core/common/action_util.c ****  *
 300:tmk_core/common/action_util.c ****  * FIXME: needs doc
 301:tmk_core/common/action_util.c ****  */
 302:tmk_core/common/action_util.c **** void del_weak_mods(uint8_t mods) { weak_mods &= ~mods; }
 673              		.loc 2 302 34 is_stmt 1 view -0
 674              		.cfi_startproc
 675              		@ args = 0, pretend = 0, frame = 0
 676              		@ frame_needed = 0, uses_anonymous_args = 0
 677              		@ link register save eliminated.
 678              		.loc 2 302 36 view .LVU94
 679              		.loc 2 302 46 is_stmt 0 view .LVU95
 680 0000 024A     		ldr	r2, .L62
 681 0002 1378     		ldrb	r3, [r2]	@ zero_extendqisi2
 682 0004 23EA0000 		bic	r0, r3, r0
 683              	.LVL23:
 684              		.loc 2 302 46 view .LVU96
 685 0008 1070     		strb	r0, [r2]
 686              		.loc 2 302 56 view .LVU97
 687 000a 7047     		bx	lr
 688              	.L63:
 689              		.align	2
 690              	.L62:
 691 000c 00000000 		.word	.LANCHOR4
 692              		.cfi_endproc
 693              	.LFE311:
 695              		.section	.text.set_weak_mods,"ax",%progbits
 696              		.align	1
 697              		.global	set_weak_mods
 698              		.syntax unified
 699              		.thumb
 700              		.thumb_func
 701              		.fpu fpv4-sp-d16
 703              	set_weak_mods:
 704              	.LVL24:
 705              	.LFB312:
 303:tmk_core/common/action_util.c **** /** \brief set weak mods
 304:tmk_core/common/action_util.c ****  *
 305:tmk_core/common/action_util.c ****  * FIXME: needs doc
 306:tmk_core/common/action_util.c ****  */
 307:tmk_core/common/action_util.c **** void set_weak_mods(uint8_t mods) { weak_mods = mods; }
 706              		.loc 2 307 34 is_stmt 1 view -0
 707              		.cfi_startproc
 708              		@ args = 0, pretend = 0, frame = 0
 709              		@ frame_needed = 0, uses_anonymous_args = 0
 710              		@ link register save eliminated.
 711              		.loc 2 307 36 view .LVU99
 712              		.loc 2 307 46 is_stmt 0 view .LVU100
 713 0000 014B     		ldr	r3, .L65
 714 0002 1870     		strb	r0, [r3]
 715              		.loc 2 307 54 view .LVU101
 716 0004 7047     		bx	lr
 717              	.L66:
 718 0006 00BF     		.align	2
 719              	.L65:
 720 0008 00000000 		.word	.LANCHOR4
 721              		.cfi_endproc
 722              	.LFE312:
 724              		.section	.text.clear_weak_mods,"ax",%progbits
 725              		.align	1
 726              		.global	clear_weak_mods
 727              		.syntax unified
 728              		.thumb
 729              		.thumb_func
 730              		.fpu fpv4-sp-d16
 732              	clear_weak_mods:
 733              	.LFB313:
 308:tmk_core/common/action_util.c **** /** \brief clear weak mods
 309:tmk_core/common/action_util.c ****  *
 310:tmk_core/common/action_util.c ****  * FIXME: needs doc
 311:tmk_core/common/action_util.c ****  */
 312:tmk_core/common/action_util.c **** void clear_weak_mods(void) { weak_mods = 0; }
 734              		.loc 2 312 28 is_stmt 1 view -0
 735              		.cfi_startproc
 736              		@ args = 0, pretend = 0, frame = 0
 737              		@ frame_needed = 0, uses_anonymous_args = 0
 738              		@ link register save eliminated.
 739              		.loc 2 312 30 view .LVU103
 740              		.loc 2 312 40 is_stmt 0 view .LVU104
 741 0000 014B     		ldr	r3, .L68
 742 0002 0022     		movs	r2, #0
 743 0004 1A70     		strb	r2, [r3]
 744              		.loc 2 312 45 view .LVU105
 745 0006 7047     		bx	lr
 746              	.L69:
 747              		.align	2
 748              	.L68:
 749 0008 00000000 		.word	.LANCHOR4
 750              		.cfi_endproc
 751              	.LFE313:
 753              		.section	.text.get_macro_mods,"ax",%progbits
 754              		.align	1
 755              		.global	get_macro_mods
 756              		.syntax unified
 757              		.thumb
 758              		.thumb_func
 759              		.fpu fpv4-sp-d16
 761              	get_macro_mods:
 762              	.LFB314:
 313:tmk_core/common/action_util.c **** 
 314:tmk_core/common/action_util.c **** #ifdef KEY_OVERRIDE_ENABLE
 315:tmk_core/common/action_util.c **** /** \brief set weak mods used by key overrides. DO not call this manually
 316:tmk_core/common/action_util.c ****  */
 317:tmk_core/common/action_util.c **** void set_weak_override_mods(uint8_t mods) { weak_override_mods = mods; }
 318:tmk_core/common/action_util.c **** /** \brief clear weak mods used by key overrides. DO not call this manually
 319:tmk_core/common/action_util.c ****  */
 320:tmk_core/common/action_util.c **** void clear_weak_override_mods(void) { weak_override_mods = 0; }
 321:tmk_core/common/action_util.c **** 
 322:tmk_core/common/action_util.c **** /** \brief set suppressed mods used by key overrides. DO not call this manually
 323:tmk_core/common/action_util.c ****  */
 324:tmk_core/common/action_util.c **** void set_suppressed_override_mods(uint8_t mods) { suppressed_mods = mods; }
 325:tmk_core/common/action_util.c **** /** \brief clear suppressed mods used by key overrides. DO not call this manually
 326:tmk_core/common/action_util.c ****  */
 327:tmk_core/common/action_util.c **** void clear_suppressed_override_mods(void) { suppressed_mods = 0; }
 328:tmk_core/common/action_util.c **** #endif
 329:tmk_core/common/action_util.c **** 
 330:tmk_core/common/action_util.c **** /* macro modifier */
 331:tmk_core/common/action_util.c **** /** \brief get macro mods
 332:tmk_core/common/action_util.c ****  *
 333:tmk_core/common/action_util.c ****  * FIXME: needs doc
 334:tmk_core/common/action_util.c ****  */
 335:tmk_core/common/action_util.c **** uint8_t get_macro_mods(void) { return macro_mods; }
 763              		.loc 2 335 30 is_stmt 1 view -0
 764              		.cfi_startproc
 765              		@ args = 0, pretend = 0, frame = 0
 766              		@ frame_needed = 0, uses_anonymous_args = 0
 767              		@ link register save eliminated.
 768              		.loc 2 335 32 view .LVU107
 769              		.loc 2 335 51 is_stmt 0 view .LVU108
 770 0000 014B     		ldr	r3, .L71
 771 0002 1878     		ldrb	r0, [r3]	@ zero_extendqisi2
 772 0004 7047     		bx	lr
 773              	.L72:
 774 0006 00BF     		.align	2
 775              	.L71:
 776 0008 00000000 		.word	.LANCHOR5
 777              		.cfi_endproc
 778              	.LFE314:
 780              		.section	.text.add_macro_mods,"ax",%progbits
 781              		.align	1
 782              		.global	add_macro_mods
 783              		.syntax unified
 784              		.thumb
 785              		.thumb_func
 786              		.fpu fpv4-sp-d16
 788              	add_macro_mods:
 789              	.LVL25:
 790              	.LFB315:
 336:tmk_core/common/action_util.c **** /** \brief add macro mods
 337:tmk_core/common/action_util.c ****  *
 338:tmk_core/common/action_util.c ****  * FIXME: needs doc
 339:tmk_core/common/action_util.c ****  */
 340:tmk_core/common/action_util.c **** void add_macro_mods(uint8_t mods) { macro_mods |= mods; }
 791              		.loc 2 340 35 is_stmt 1 view -0
 792              		.cfi_startproc
 793              		@ args = 0, pretend = 0, frame = 0
 794              		@ frame_needed = 0, uses_anonymous_args = 0
 795              		@ link register save eliminated.
 796              		.loc 2 340 37 view .LVU110
 797              		.loc 2 340 48 is_stmt 0 view .LVU111
 798 0000 024B     		ldr	r3, .L74
 799 0002 1A78     		ldrb	r2, [r3]	@ zero_extendqisi2
 800 0004 1043     		orrs	r0, r0, r2
 801              	.LVL26:
 802              		.loc 2 340 48 view .LVU112
 803 0006 1870     		strb	r0, [r3]
 804              		.loc 2 340 57 view .LVU113
 805 0008 7047     		bx	lr
 806              	.L75:
 807 000a 00BF     		.align	2
 808              	.L74:
 809 000c 00000000 		.word	.LANCHOR5
 810              		.cfi_endproc
 811              	.LFE315:
 813              		.section	.text.del_macro_mods,"ax",%progbits
 814              		.align	1
 815              		.global	del_macro_mods
 816              		.syntax unified
 817              		.thumb
 818              		.thumb_func
 819              		.fpu fpv4-sp-d16
 821              	del_macro_mods:
 822              	.LVL27:
 823              	.LFB316:
 341:tmk_core/common/action_util.c **** /** \brief del macro mods
 342:tmk_core/common/action_util.c ****  *
 343:tmk_core/common/action_util.c ****  * FIXME: needs doc
 344:tmk_core/common/action_util.c ****  */
 345:tmk_core/common/action_util.c **** void del_macro_mods(uint8_t mods) { macro_mods &= ~mods; }
 824              		.loc 2 345 35 is_stmt 1 view -0
 825              		.cfi_startproc
 826              		@ args = 0, pretend = 0, frame = 0
 827              		@ frame_needed = 0, uses_anonymous_args = 0
 828              		@ link register save eliminated.
 829              		.loc 2 345 37 view .LVU115
 830              		.loc 2 345 48 is_stmt 0 view .LVU116
 831 0000 024A     		ldr	r2, .L77
 832 0002 1378     		ldrb	r3, [r2]	@ zero_extendqisi2
 833 0004 23EA0000 		bic	r0, r3, r0
 834              	.LVL28:
 835              		.loc 2 345 48 view .LVU117
 836 0008 1070     		strb	r0, [r2]
 837              		.loc 2 345 58 view .LVU118
 838 000a 7047     		bx	lr
 839              	.L78:
 840              		.align	2
 841              	.L77:
 842 000c 00000000 		.word	.LANCHOR5
 843              		.cfi_endproc
 844              	.LFE316:
 846              		.section	.text.set_macro_mods,"ax",%progbits
 847              		.align	1
 848              		.global	set_macro_mods
 849              		.syntax unified
 850              		.thumb
 851              		.thumb_func
 852              		.fpu fpv4-sp-d16
 854              	set_macro_mods:
 855              	.LVL29:
 856              	.LFB317:
 346:tmk_core/common/action_util.c **** /** \brief set macro mods
 347:tmk_core/common/action_util.c ****  *
 348:tmk_core/common/action_util.c ****  * FIXME: needs doc
 349:tmk_core/common/action_util.c ****  */
 350:tmk_core/common/action_util.c **** void set_macro_mods(uint8_t mods) { macro_mods = mods; }
 857              		.loc 2 350 35 is_stmt 1 view -0
 858              		.cfi_startproc
 859              		@ args = 0, pretend = 0, frame = 0
 860              		@ frame_needed = 0, uses_anonymous_args = 0
 861              		@ link register save eliminated.
 862              		.loc 2 350 37 view .LVU120
 863              		.loc 2 350 48 is_stmt 0 view .LVU121
 864 0000 014B     		ldr	r3, .L80
 865 0002 1870     		strb	r0, [r3]
 866              		.loc 2 350 56 view .LVU122
 867 0004 7047     		bx	lr
 868              	.L81:
 869 0006 00BF     		.align	2
 870              	.L80:
 871 0008 00000000 		.word	.LANCHOR5
 872              		.cfi_endproc
 873              	.LFE317:
 875              		.section	.text.clear_macro_mods,"ax",%progbits
 876              		.align	1
 877              		.global	clear_macro_mods
 878              		.syntax unified
 879              		.thumb
 880              		.thumb_func
 881              		.fpu fpv4-sp-d16
 883              	clear_macro_mods:
 884              	.LFB318:
 351:tmk_core/common/action_util.c **** /** \brief clear macro mods
 352:tmk_core/common/action_util.c ****  *
 353:tmk_core/common/action_util.c ****  * FIXME: needs doc
 354:tmk_core/common/action_util.c ****  */
 355:tmk_core/common/action_util.c **** void clear_macro_mods(void) { macro_mods = 0; }
 885              		.loc 2 355 29 is_stmt 1 view -0
 886              		.cfi_startproc
 887              		@ args = 0, pretend = 0, frame = 0
 888              		@ frame_needed = 0, uses_anonymous_args = 0
 889              		@ link register save eliminated.
 890              		.loc 2 355 31 view .LVU124
 891              		.loc 2 355 42 is_stmt 0 view .LVU125
 892 0000 014B     		ldr	r3, .L83
 893 0002 0022     		movs	r2, #0
 894 0004 1A70     		strb	r2, [r3]
 895              		.loc 2 355 47 view .LVU126
 896 0006 7047     		bx	lr
 897              	.L84:
 898              		.align	2
 899              	.L83:
 900 0008 00000000 		.word	.LANCHOR5
 901              		.cfi_endproc
 902              	.LFE318:
 904              		.section	.text.get_oneshot_mods,"ax",%progbits
 905              		.align	1
 906              		.global	get_oneshot_mods
 907              		.syntax unified
 908              		.thumb
 909              		.thumb_func
 910              		.fpu fpv4-sp-d16
 912              	get_oneshot_mods:
 913              	.LFB319:
 356:tmk_core/common/action_util.c **** 
 357:tmk_core/common/action_util.c **** #ifndef NO_ACTION_ONESHOT
 358:tmk_core/common/action_util.c **** /** \brief get oneshot mods
 359:tmk_core/common/action_util.c ****  *
 360:tmk_core/common/action_util.c ****  * FIXME: needs doc
 361:tmk_core/common/action_util.c ****  */
 362:tmk_core/common/action_util.c **** uint8_t get_oneshot_mods(void) { return oneshot_mods; }
 914              		.loc 2 362 32 is_stmt 1 view -0
 915              		.cfi_startproc
 916              		@ args = 0, pretend = 0, frame = 0
 917              		@ frame_needed = 0, uses_anonymous_args = 0
 918              		@ link register save eliminated.
 919              		.loc 2 362 34 view .LVU128
 920              		.loc 2 362 55 is_stmt 0 view .LVU129
 921 0000 014B     		ldr	r3, .L86
 922 0002 1878     		ldrb	r0, [r3]	@ zero_extendqisi2
 923 0004 7047     		bx	lr
 924              	.L87:
 925 0006 00BF     		.align	2
 926              	.L86:
 927 0008 00000000 		.word	.LANCHOR6
 928              		.cfi_endproc
 929              	.LFE319:
 931              		.section	.text.oneshot_locked_mods_changed_user,"ax",%progbits
 932              		.align	1
 933              		.weak	oneshot_locked_mods_changed_user
 934              		.syntax unified
 935              		.thumb
 936              		.thumb_func
 937              		.fpu fpv4-sp-d16
 939              	oneshot_locked_mods_changed_user:
 940              	.LVL30:
 941              	.LFB324:
 363:tmk_core/common/action_util.c **** 
 364:tmk_core/common/action_util.c **** void add_oneshot_mods(uint8_t mods) {
 365:tmk_core/common/action_util.c ****     if ((oneshot_mods & mods) != mods) {
 366:tmk_core/common/action_util.c **** #    if (defined(ONESHOT_TIMEOUT) && (ONESHOT_TIMEOUT > 0))
 367:tmk_core/common/action_util.c ****         oneshot_time = timer_read();
 368:tmk_core/common/action_util.c **** #    endif
 369:tmk_core/common/action_util.c ****         oneshot_mods |= mods;
 370:tmk_core/common/action_util.c ****         oneshot_mods_changed_kb(mods);
 371:tmk_core/common/action_util.c ****     }
 372:tmk_core/common/action_util.c **** }
 373:tmk_core/common/action_util.c **** 
 374:tmk_core/common/action_util.c **** void del_oneshot_mods(uint8_t mods) {
 375:tmk_core/common/action_util.c ****     if (oneshot_mods & mods) {
 376:tmk_core/common/action_util.c ****         oneshot_mods &= ~mods;
 377:tmk_core/common/action_util.c **** #    if (defined(ONESHOT_TIMEOUT) && (ONESHOT_TIMEOUT > 0))
 378:tmk_core/common/action_util.c ****         oneshot_time = oneshot_mods ? timer_read() : 0;
 379:tmk_core/common/action_util.c **** #    endif
 380:tmk_core/common/action_util.c ****         oneshot_mods_changed_kb(oneshot_mods);
 381:tmk_core/common/action_util.c ****     }
 382:tmk_core/common/action_util.c **** }
 383:tmk_core/common/action_util.c **** 
 384:tmk_core/common/action_util.c **** /** \brief set oneshot mods
 385:tmk_core/common/action_util.c ****  *
 386:tmk_core/common/action_util.c ****  * FIXME: needs doc
 387:tmk_core/common/action_util.c ****  */
 388:tmk_core/common/action_util.c **** void set_oneshot_mods(uint8_t mods) {
 389:tmk_core/common/action_util.c ****     if (!keymap_config.oneshot_disable) {
 390:tmk_core/common/action_util.c ****         if (oneshot_mods != mods) {
 391:tmk_core/common/action_util.c **** #    if (defined(ONESHOT_TIMEOUT) && (ONESHOT_TIMEOUT > 0))
 392:tmk_core/common/action_util.c ****             oneshot_time = timer_read();
 393:tmk_core/common/action_util.c **** #    endif
 394:tmk_core/common/action_util.c ****             oneshot_mods = mods;
 395:tmk_core/common/action_util.c ****             oneshot_mods_changed_kb(mods);
 396:tmk_core/common/action_util.c ****         }
 397:tmk_core/common/action_util.c ****     }
 398:tmk_core/common/action_util.c **** }
 399:tmk_core/common/action_util.c **** 
 400:tmk_core/common/action_util.c **** /** \brief clear oneshot mods
 401:tmk_core/common/action_util.c ****  *
 402:tmk_core/common/action_util.c ****  * FIXME: needs doc
 403:tmk_core/common/action_util.c ****  */
 404:tmk_core/common/action_util.c **** void clear_oneshot_mods(void) {
 405:tmk_core/common/action_util.c ****     if (oneshot_mods) {
 406:tmk_core/common/action_util.c ****         oneshot_mods = 0;
 407:tmk_core/common/action_util.c **** #    if (defined(ONESHOT_TIMEOUT) && (ONESHOT_TIMEOUT > 0))
 408:tmk_core/common/action_util.c ****         oneshot_time = 0;
 409:tmk_core/common/action_util.c **** #    endif
 410:tmk_core/common/action_util.c ****         oneshot_mods_changed_kb(oneshot_mods);
 411:tmk_core/common/action_util.c ****     }
 412:tmk_core/common/action_util.c **** }
 413:tmk_core/common/action_util.c **** #endif
 414:tmk_core/common/action_util.c **** 
 415:tmk_core/common/action_util.c **** /** \brief Called when the one shot modifiers have been changed.
 416:tmk_core/common/action_util.c ****  *
 417:tmk_core/common/action_util.c ****  * \param mods Contains the active modifiers active after the change.
 418:tmk_core/common/action_util.c ****  */
 419:tmk_core/common/action_util.c **** __attribute__((weak)) void oneshot_locked_mods_changed_user(uint8_t mods) {}
 942              		.loc 2 419 75 is_stmt 1 view -0
 943              		.cfi_startproc
 944              		@ args = 0, pretend = 0, frame = 0
 945              		@ frame_needed = 0, uses_anonymous_args = 0
 946              		@ link register save eliminated.
 947              		.loc 2 419 76 view .LVU131
 948 0000 7047     		bx	lr
 949              		.cfi_endproc
 950              	.LFE324:
 952              		.section	.text.oneshot_locked_mods_changed_kb,"ax",%progbits
 953              		.align	1
 954              		.weak	oneshot_locked_mods_changed_kb
 955              		.syntax unified
 956              		.thumb
 957              		.thumb_func
 958              		.fpu fpv4-sp-d16
 960              	oneshot_locked_mods_changed_kb:
 961              	.LVL31:
 962              	.LFB325:
 420:tmk_core/common/action_util.c **** 
 421:tmk_core/common/action_util.c **** /** \brief Called when the locked one shot modifiers have been changed.
 422:tmk_core/common/action_util.c ****  *
 423:tmk_core/common/action_util.c ****  * \param mods Contains the active modifiers active after the change.
 424:tmk_core/common/action_util.c ****  */
 425:tmk_core/common/action_util.c **** __attribute__((weak)) void oneshot_locked_mods_changed_kb(uint8_t mods) { oneshot_locked_mods_chang
 963              		.loc 2 425 73 view -0
 964              		.cfi_startproc
 965              		@ args = 0, pretend = 0, frame = 0
 966              		@ frame_needed = 0, uses_anonymous_args = 0
 967              		.loc 2 425 75 view .LVU133
 968              		.loc 2 425 73 is_stmt 0 view .LVU134
 969 0000 08B5     		push	{r3, lr}
 970              		.cfi_def_cfa_offset 8
 971              		.cfi_offset 3, -8
 972              		.cfi_offset 14, -4
 973              		.loc 2 425 75 view .LVU135
 974 0002 FFF7FEFF 		bl	oneshot_locked_mods_changed_user
 975              	.LVL32:
 976              		.loc 2 425 115 view .LVU136
 977 0006 08BD     		pop	{r3, pc}
 978              		.cfi_endproc
 979              	.LFE325:
 981              		.section	.text.set_oneshot_locked_mods,"ax",%progbits
 982              		.align	1
 983              		.global	set_oneshot_locked_mods
 984              		.syntax unified
 985              		.thumb
 986              		.thumb_func
 987              		.fpu fpv4-sp-d16
 989              	set_oneshot_locked_mods:
 990              	.LVL33:
 991              	.LFB289:
  57:tmk_core/common/action_util.c ****     if (mods != oneshot_locked_mods) {
 992              		.loc 2 57 54 is_stmt 1 view -0
 993              		.cfi_startproc
 994              		@ args = 0, pretend = 0, frame = 0
 995              		@ frame_needed = 0, uses_anonymous_args = 0
  58:tmk_core/common/action_util.c ****         oneshot_locked_mods = mods;
 996              		.loc 2 58 5 view .LVU138
  57:tmk_core/common/action_util.c ****     if (mods != oneshot_locked_mods) {
 997              		.loc 2 57 54 is_stmt 0 view .LVU139
 998 0000 08B5     		push	{r3, lr}
 999              		.cfi_def_cfa_offset 8
 1000              		.cfi_offset 3, -8
 1001              		.cfi_offset 14, -4
  58:tmk_core/common/action_util.c ****         oneshot_locked_mods = mods;
 1002              		.loc 2 58 14 view .LVU140
 1003 0002 044A     		ldr	r2, .L92
  58:tmk_core/common/action_util.c ****         oneshot_locked_mods = mods;
 1004              		.loc 2 58 8 view .LVU141
 1005 0004 1178     		ldrb	r1, [r2]	@ zero_extendqisi2
 1006 0006 8142     		cmp	r1, r0
 1007 0008 02D0     		beq	.L90
  59:tmk_core/common/action_util.c ****         oneshot_locked_mods_changed_kb(oneshot_locked_mods);
 1008              		.loc 2 59 9 is_stmt 1 view .LVU142
  59:tmk_core/common/action_util.c ****         oneshot_locked_mods_changed_kb(oneshot_locked_mods);
 1009              		.loc 2 59 29 is_stmt 0 view .LVU143
 1010 000a 1070     		strb	r0, [r2]
  60:tmk_core/common/action_util.c ****     }
 1011              		.loc 2 60 9 is_stmt 1 view .LVU144
 1012 000c FFF7FEFF 		bl	oneshot_locked_mods_changed_kb
 1013              	.LVL34:
 1014              	.L90:
  62:tmk_core/common/action_util.c **** void clear_oneshot_locked_mods(void) {
 1015              		.loc 2 62 1 is_stmt 0 view .LVU145
 1016 0010 08BD     		pop	{r3, pc}
 1017              	.L93:
 1018 0012 00BF     		.align	2
 1019              	.L92:
 1020 0014 00000000 		.word	.LANCHOR1
 1021              		.cfi_endproc
 1022              	.LFE289:
 1024              		.section	.text.clear_oneshot_locked_mods,"ax",%progbits
 1025              		.align	1
 1026              		.global	clear_oneshot_locked_mods
 1027              		.syntax unified
 1028              		.thumb
 1029              		.thumb_func
 1030              		.fpu fpv4-sp-d16
 1032              	clear_oneshot_locked_mods:
 1033              	.LFB290:
  63:tmk_core/common/action_util.c ****     if (oneshot_locked_mods) {
 1034              		.loc 2 63 38 is_stmt 1 view -0
 1035              		.cfi_startproc
 1036              		@ args = 0, pretend = 0, frame = 0
 1037              		@ frame_needed = 0, uses_anonymous_args = 0
  64:tmk_core/common/action_util.c ****         oneshot_locked_mods = 0;
 1038              		.loc 2 64 5 view .LVU147
  63:tmk_core/common/action_util.c ****     if (oneshot_locked_mods) {
 1039              		.loc 2 63 38 is_stmt 0 view .LVU148
 1040 0000 08B5     		push	{r3, lr}
 1041              		.cfi_def_cfa_offset 8
 1042              		.cfi_offset 3, -8
 1043              		.cfi_offset 14, -4
  64:tmk_core/common/action_util.c ****         oneshot_locked_mods = 0;
 1044              		.loc 2 64 9 view .LVU149
 1045 0002 044B     		ldr	r3, .L99
  64:tmk_core/common/action_util.c ****         oneshot_locked_mods = 0;
 1046              		.loc 2 64 8 view .LVU150
 1047 0004 1A78     		ldrb	r2, [r3]	@ zero_extendqisi2
 1048 0006 1AB1     		cbz	r2, .L94
  65:tmk_core/common/action_util.c ****         oneshot_locked_mods_changed_kb(oneshot_locked_mods);
 1049              		.loc 2 65 9 is_stmt 1 view .LVU151
  65:tmk_core/common/action_util.c ****         oneshot_locked_mods_changed_kb(oneshot_locked_mods);
 1050              		.loc 2 65 29 is_stmt 0 view .LVU152
 1051 0008 0020     		movs	r0, #0
 1052 000a 1870     		strb	r0, [r3]
  66:tmk_core/common/action_util.c ****     }
 1053              		.loc 2 66 9 is_stmt 1 view .LVU153
 1054 000c FFF7FEFF 		bl	oneshot_locked_mods_changed_kb
 1055              	.LVL35:
 1056              	.L94:
  68:tmk_core/common/action_util.c **** #    if (defined(ONESHOT_TIMEOUT) && (ONESHOT_TIMEOUT > 0))
 1057              		.loc 2 68 1 is_stmt 0 view .LVU154
 1058 0010 08BD     		pop	{r3, pc}
 1059              	.L100:
 1060 0012 00BF     		.align	2
 1061              	.L99:
 1062 0014 00000000 		.word	.LANCHOR1
 1063              		.cfi_endproc
 1064              	.LFE290:
 1066              		.section	.text.oneshot_mods_changed_user,"ax",%progbits
 1067              		.align	1
 1068              		.weak	oneshot_mods_changed_user
 1069              		.syntax unified
 1070              		.thumb
 1071              		.thumb_func
 1072              		.fpu fpv4-sp-d16
 1074              	oneshot_mods_changed_user:
 1075              	.LFB334:
 1076              		.cfi_startproc
 1077              		@ args = 0, pretend = 0, frame = 0
 1078              		@ frame_needed = 0, uses_anonymous_args = 0
 1079              		@ link register save eliminated.
 1080 0000 7047     		bx	lr
 1081              		.cfi_endproc
 1082              	.LFE334:
 1084              		.section	.text.oneshot_mods_changed_kb,"ax",%progbits
 1085              		.align	1
 1086              		.weak	oneshot_mods_changed_kb
 1087              		.syntax unified
 1088              		.thumb
 1089              		.thumb_func
 1090              		.fpu fpv4-sp-d16
 1092              	oneshot_mods_changed_kb:
 1093              	.LVL36:
 1094              	.LFB327:
 426:tmk_core/common/action_util.c **** 
 427:tmk_core/common/action_util.c **** /** \brief Called when the one shot modifiers have been changed.
 428:tmk_core/common/action_util.c ****  *
 429:tmk_core/common/action_util.c ****  * \param mods Contains the active modifiers active after the change.
 430:tmk_core/common/action_util.c ****  */
 431:tmk_core/common/action_util.c **** __attribute__((weak)) void oneshot_mods_changed_user(uint8_t mods) {}
 432:tmk_core/common/action_util.c **** 
 433:tmk_core/common/action_util.c **** /** \brief Called when the one shot modifiers have been changed.
 434:tmk_core/common/action_util.c ****  *
 435:tmk_core/common/action_util.c ****  * \param mods Contains the active modifiers active after the change.
 436:tmk_core/common/action_util.c ****  */
 437:tmk_core/common/action_util.c **** __attribute__((weak)) void oneshot_mods_changed_kb(uint8_t mods) { oneshot_mods_changed_user(mods);
 1095              		.loc 2 437 66 is_stmt 1 view -0
 1096              		.cfi_startproc
 1097              		@ args = 0, pretend = 0, frame = 0
 1098              		@ frame_needed = 0, uses_anonymous_args = 0
 1099              		.loc 2 437 68 view .LVU156
 1100              		.loc 2 437 66 is_stmt 0 view .LVU157
 1101 0000 08B5     		push	{r3, lr}
 1102              		.cfi_def_cfa_offset 8
 1103              		.cfi_offset 3, -8
 1104              		.cfi_offset 14, -4
 1105              		.loc 2 437 68 view .LVU158
 1106 0002 FFF7FEFF 		bl	oneshot_mods_changed_user
 1107              	.LVL37:
 1108              		.loc 2 437 101 view .LVU159
 1109 0006 08BD     		pop	{r3, pc}
 1110              		.cfi_endproc
 1111              	.LFE327:
 1113              		.section	.text.add_oneshot_mods,"ax",%progbits
 1114              		.align	1
 1115              		.global	add_oneshot_mods
 1116              		.syntax unified
 1117              		.thumb
 1118              		.thumb_func
 1119              		.fpu fpv4-sp-d16
 1121              	add_oneshot_mods:
 1122              	.LVL38:
 1123              	.LFB320:
 364:tmk_core/common/action_util.c ****     if ((oneshot_mods & mods) != mods) {
 1124              		.loc 2 364 37 is_stmt 1 view -0
 1125              		.cfi_startproc
 1126              		@ args = 0, pretend = 0, frame = 0
 1127              		@ frame_needed = 0, uses_anonymous_args = 0
 365:tmk_core/common/action_util.c **** #    if (defined(ONESHOT_TIMEOUT) && (ONESHOT_TIMEOUT > 0))
 1128              		.loc 2 365 5 view .LVU161
 364:tmk_core/common/action_util.c ****     if ((oneshot_mods & mods) != mods) {
 1129              		.loc 2 364 37 is_stmt 0 view .LVU162
 1130 0000 08B5     		push	{r3, lr}
 1131              		.cfi_def_cfa_offset 8
 1132              		.cfi_offset 3, -8
 1133              		.cfi_offset 14, -4
 365:tmk_core/common/action_util.c **** #    if (defined(ONESHOT_TIMEOUT) && (ONESHOT_TIMEOUT > 0))
 1134              		.loc 2 365 31 view .LVU163
 1135 0002 0549     		ldr	r1, .L105
 1136 0004 0B78     		ldrb	r3, [r1]	@ zero_extendqisi2
 365:tmk_core/common/action_util.c **** #    if (defined(ONESHOT_TIMEOUT) && (ONESHOT_TIMEOUT > 0))
 1137              		.loc 2 365 8 view .LVU164
 1138 0006 30EA030C 		bics	ip, r0, r3
 1139 000a 03D0     		beq	.L103
 369:tmk_core/common/action_util.c ****         oneshot_mods_changed_kb(mods);
 1140              		.loc 2 369 9 is_stmt 1 view .LVU165
 369:tmk_core/common/action_util.c ****         oneshot_mods_changed_kb(mods);
 1141              		.loc 2 369 22 is_stmt 0 view .LVU166
 1142 000c 0343     		orrs	r3, r3, r0
 1143 000e 0B70     		strb	r3, [r1]
 370:tmk_core/common/action_util.c ****     }
 1144              		.loc 2 370 9 is_stmt 1 view .LVU167
 1145 0010 FFF7FEFF 		bl	oneshot_mods_changed_kb
 1146              	.LVL39:
 1147              	.L103:
 372:tmk_core/common/action_util.c **** 
 1148              		.loc 2 372 1 is_stmt 0 view .LVU168
 1149 0014 08BD     		pop	{r3, pc}
 1150              	.L106:
 1151 0016 00BF     		.align	2
 1152              	.L105:
 1153 0018 00000000 		.word	.LANCHOR6
 1154              		.cfi_endproc
 1155              	.LFE320:
 1157              		.section	.text.del_oneshot_mods,"ax",%progbits
 1158              		.align	1
 1159              		.global	del_oneshot_mods
 1160              		.syntax unified
 1161              		.thumb
 1162              		.thumb_func
 1163              		.fpu fpv4-sp-d16
 1165              	del_oneshot_mods:
 1166              	.LVL40:
 1167              	.LFB321:
 374:tmk_core/common/action_util.c ****     if (oneshot_mods & mods) {
 1168              		.loc 2 374 37 is_stmt 1 view -0
 1169              		.cfi_startproc
 1170              		@ args = 0, pretend = 0, frame = 0
 1171              		@ frame_needed = 0, uses_anonymous_args = 0
 375:tmk_core/common/action_util.c ****         oneshot_mods &= ~mods;
 1172              		.loc 2 375 5 view .LVU170
 374:tmk_core/common/action_util.c ****     if (oneshot_mods & mods) {
 1173              		.loc 2 374 37 is_stmt 0 view .LVU171
 1174 0000 08B5     		push	{r3, lr}
 1175              		.cfi_def_cfa_offset 8
 1176              		.cfi_offset 3, -8
 1177              		.cfi_offset 14, -4
 375:tmk_core/common/action_util.c ****         oneshot_mods &= ~mods;
 1178              		.loc 2 375 9 view .LVU172
 1179 0002 054A     		ldr	r2, .L112
 1180 0004 1378     		ldrb	r3, [r2]	@ zero_extendqisi2
 375:tmk_core/common/action_util.c ****         oneshot_mods &= ~mods;
 1181              		.loc 2 375 8 view .LVU173
 1182 0006 0342     		tst	r3, r0
 1183 0008 04D0     		beq	.L107
 376:tmk_core/common/action_util.c **** #    if (defined(ONESHOT_TIMEOUT) && (ONESHOT_TIMEOUT > 0))
 1184              		.loc 2 376 9 is_stmt 1 view .LVU174
 376:tmk_core/common/action_util.c **** #    if (defined(ONESHOT_TIMEOUT) && (ONESHOT_TIMEOUT > 0))
 1185              		.loc 2 376 22 is_stmt 0 view .LVU175
 1186 000a 23EA0000 		bic	r0, r3, r0
 1187              	.LVL41:
 376:tmk_core/common/action_util.c **** #    if (defined(ONESHOT_TIMEOUT) && (ONESHOT_TIMEOUT > 0))
 1188              		.loc 2 376 22 view .LVU176
 1189 000e 1070     		strb	r0, [r2]
 380:tmk_core/common/action_util.c ****     }
 1190              		.loc 2 380 9 is_stmt 1 view .LVU177
 1191 0010 FFF7FEFF 		bl	oneshot_mods_changed_kb
 1192              	.LVL42:
 1193              	.L107:
 382:tmk_core/common/action_util.c **** 
 1194              		.loc 2 382 1 is_stmt 0 view .LVU178
 1195 0014 08BD     		pop	{r3, pc}
 1196              	.L113:
 1197 0016 00BF     		.align	2
 1198              	.L112:
 1199 0018 00000000 		.word	.LANCHOR6
 1200              		.cfi_endproc
 1201              	.LFE321:
 1203              		.section	.text.set_oneshot_mods,"ax",%progbits
 1204              		.align	1
 1205              		.global	set_oneshot_mods
 1206              		.syntax unified
 1207              		.thumb
 1208              		.thumb_func
 1209              		.fpu fpv4-sp-d16
 1211              	set_oneshot_mods:
 1212              	.LVL43:
 1213              	.LFB322:
 388:tmk_core/common/action_util.c ****     if (!keymap_config.oneshot_disable) {
 1214              		.loc 2 388 37 is_stmt 1 view -0
 1215              		.cfi_startproc
 1216              		@ args = 0, pretend = 0, frame = 0
 1217              		@ frame_needed = 0, uses_anonymous_args = 0
 389:tmk_core/common/action_util.c ****         if (oneshot_mods != mods) {
 1218              		.loc 2 389 5 view .LVU180
 389:tmk_core/common/action_util.c ****         if (oneshot_mods != mods) {
 1219              		.loc 2 389 23 is_stmt 0 view .LVU181
 1220 0000 064A     		ldr	r2, .L116
 1221 0002 5278     		ldrb	r2, [r2, #1]	@ zero_extendqisi2
 389:tmk_core/common/action_util.c ****         if (oneshot_mods != mods) {
 1222              		.loc 2 389 8 view .LVU182
 1223 0004 5207     		lsls	r2, r2, #29
 388:tmk_core/common/action_util.c ****     if (!keymap_config.oneshot_disable) {
 1224              		.loc 2 388 37 view .LVU183
 1225 0006 08B5     		push	{r3, lr}
 1226              		.cfi_def_cfa_offset 8
 1227              		.cfi_offset 3, -8
 1228              		.cfi_offset 14, -4
 389:tmk_core/common/action_util.c ****         if (oneshot_mods != mods) {
 1229              		.loc 2 389 8 view .LVU184
 1230 0008 06D4     		bmi	.L114
 390:tmk_core/common/action_util.c **** #    if (defined(ONESHOT_TIMEOUT) && (ONESHOT_TIMEOUT > 0))
 1231              		.loc 2 390 9 is_stmt 1 view .LVU185
 390:tmk_core/common/action_util.c **** #    if (defined(ONESHOT_TIMEOUT) && (ONESHOT_TIMEOUT > 0))
 1232              		.loc 2 390 26 is_stmt 0 view .LVU186
 1233 000a 054A     		ldr	r2, .L116+4
 390:tmk_core/common/action_util.c **** #    if (defined(ONESHOT_TIMEOUT) && (ONESHOT_TIMEOUT > 0))
 1234              		.loc 2 390 12 view .LVU187
 1235 000c 1178     		ldrb	r1, [r2]	@ zero_extendqisi2
 1236 000e 8142     		cmp	r1, r0
 1237 0010 02D0     		beq	.L114
 394:tmk_core/common/action_util.c ****             oneshot_mods_changed_kb(mods);
 1238              		.loc 2 394 13 is_stmt 1 view .LVU188
 394:tmk_core/common/action_util.c ****             oneshot_mods_changed_kb(mods);
 1239              		.loc 2 394 26 is_stmt 0 view .LVU189
 1240 0012 1070     		strb	r0, [r2]
 395:tmk_core/common/action_util.c ****         }
 1241              		.loc 2 395 13 is_stmt 1 view .LVU190
 1242 0014 FFF7FEFF 		bl	oneshot_mods_changed_kb
 1243              	.LVL44:
 1244              	.L114:
 398:tmk_core/common/action_util.c **** 
 1245              		.loc 2 398 1 is_stmt 0 view .LVU191
 1246 0018 08BD     		pop	{r3, pc}
 1247              	.L117:
 1248 001a 00BF     		.align	2
 1249              	.L116:
 1250 001c 00000000 		.word	keymap_config
 1251 0020 00000000 		.word	.LANCHOR6
 1252              		.cfi_endproc
 1253              	.LFE322:
 1255              		.section	.text.clear_oneshot_mods,"ax",%progbits
 1256              		.align	1
 1257              		.global	clear_oneshot_mods
 1258              		.syntax unified
 1259              		.thumb
 1260              		.thumb_func
 1261              		.fpu fpv4-sp-d16
 1263              	clear_oneshot_mods:
 1264              	.LFB323:
 404:tmk_core/common/action_util.c ****     if (oneshot_mods) {
 1265              		.loc 2 404 31 is_stmt 1 view -0
 1266              		.cfi_startproc
 1267              		@ args = 0, pretend = 0, frame = 0
 1268              		@ frame_needed = 0, uses_anonymous_args = 0
 405:tmk_core/common/action_util.c ****         oneshot_mods = 0;
 1269              		.loc 2 405 5 view .LVU193
 404:tmk_core/common/action_util.c ****     if (oneshot_mods) {
 1270              		.loc 2 404 31 is_stmt 0 view .LVU194
 1271 0000 08B5     		push	{r3, lr}
 1272              		.cfi_def_cfa_offset 8
 1273              		.cfi_offset 3, -8
 1274              		.cfi_offset 14, -4
 405:tmk_core/common/action_util.c ****         oneshot_mods = 0;
 1275              		.loc 2 405 9 view .LVU195
 1276 0002 044B     		ldr	r3, .L123
 405:tmk_core/common/action_util.c ****         oneshot_mods = 0;
 1277              		.loc 2 405 8 view .LVU196
 1278 0004 1A78     		ldrb	r2, [r3]	@ zero_extendqisi2
 1279 0006 1AB1     		cbz	r2, .L118
 1280              	.LBB22:
 1281              	.LBI22:
 404:tmk_core/common/action_util.c ****     if (oneshot_mods) {
 1282              		.loc 2 404 6 is_stmt 1 view .LVU197
 1283              	.LBB23:
 406:tmk_core/common/action_util.c **** #    if (defined(ONESHOT_TIMEOUT) && (ONESHOT_TIMEOUT > 0))
 1284              		.loc 2 406 9 view .LVU198
 406:tmk_core/common/action_util.c **** #    if (defined(ONESHOT_TIMEOUT) && (ONESHOT_TIMEOUT > 0))
 1285              		.loc 2 406 22 is_stmt 0 view .LVU199
 1286 0008 0020     		movs	r0, #0
 1287 000a 1870     		strb	r0, [r3]
 410:tmk_core/common/action_util.c ****     }
 1288              		.loc 2 410 9 is_stmt 1 view .LVU200
 1289 000c FFF7FEFF 		bl	oneshot_mods_changed_kb
 1290              	.LVL45:
 1291              	.L118:
 1292              	.LBE23:
 1293              	.LBE22:
 412:tmk_core/common/action_util.c **** #endif
 1294              		.loc 2 412 1 is_stmt 0 view .LVU201
 1295 0010 08BD     		pop	{r3, pc}
 1296              	.L124:
 1297 0012 00BF     		.align	2
 1298              	.L123:
 1299 0014 00000000 		.word	.LANCHOR6
 1300              		.cfi_endproc
 1301              	.LFE323:
 1303              		.section	.text.send_keyboard_report,"ax",%progbits
 1304              		.align	1
 1305              		.global	send_keyboard_report
 1306              		.syntax unified
 1307              		.thumb
 1308              		.thumb_func
 1309              		.fpu fpv4-sp-d16
 1311              	send_keyboard_report:
 1312              	.LFB303:
 232:tmk_core/common/action_util.c ****     keyboard_report->mods = real_mods;
 1313              		.loc 2 232 33 is_stmt 1 view -0
 1314              		.cfi_startproc
 1315              		@ args = 0, pretend = 0, frame = 0
 1316              		@ frame_needed = 0, uses_anonymous_args = 0
 233:tmk_core/common/action_util.c ****     keyboard_report->mods |= weak_mods;
 1317              		.loc 2 233 5 view .LVU203
 232:tmk_core/common/action_util.c ****     keyboard_report->mods = real_mods;
 1318              		.loc 2 232 33 is_stmt 0 view .LVU204
 1319 0000 10B5     		push	{r4, lr}
 1320              		.cfi_def_cfa_offset 8
 1321              		.cfi_offset 4, -8
 1322              		.cfi_offset 14, -4
 234:tmk_core/common/action_util.c ****     keyboard_report->mods |= macro_mods;
 1323              		.loc 2 234 27 view .LVU205
 1324 0002 0D4B     		ldr	r3, .L132
 1325 0004 0D4A     		ldr	r2, .L132+4
 1326 0006 1B78     		ldrb	r3, [r3]	@ zero_extendqisi2
 1327 0008 1278     		ldrb	r2, [r2]	@ zero_extendqisi2
 233:tmk_core/common/action_util.c ****     keyboard_report->mods |= weak_mods;
 1328              		.loc 2 233 20 view .LVU206
 1329 000a 0D4C     		ldr	r4, .L132+8
 234:tmk_core/common/action_util.c ****     keyboard_report->mods |= macro_mods;
 1330              		.loc 2 234 27 view .LVU207
 1331 000c 1343     		orrs	r3, r3, r2
 235:tmk_core/common/action_util.c **** 
 1332              		.loc 2 235 27 view .LVU208
 1333 000e 0D4A     		ldr	r2, .L132+12
 233:tmk_core/common/action_util.c ****     keyboard_report->mods |= weak_mods;
 1334              		.loc 2 233 20 view .LVU209
 1335 0010 2068     		ldr	r0, [r4]
 234:tmk_core/common/action_util.c ****     keyboard_report->mods |= macro_mods;
 1336              		.loc 2 234 5 is_stmt 1 view .LVU210
 235:tmk_core/common/action_util.c **** 
 1337              		.loc 2 235 5 view .LVU211
 235:tmk_core/common/action_util.c **** 
 1338              		.loc 2 235 27 is_stmt 0 view .LVU212
 1339 0012 1278     		ldrb	r2, [r2]	@ zero_extendqisi2
 1340 0014 1343     		orrs	r3, r3, r2
 238:tmk_core/common/action_util.c **** #    if (defined(ONESHOT_TIMEOUT) && (ONESHOT_TIMEOUT > 0))
 1341              		.loc 2 238 9 view .LVU213
 1342 0016 0C4A     		ldr	r2, .L132+16
 235:tmk_core/common/action_util.c **** 
 1343              		.loc 2 235 27 view .LVU214
 1344 0018 0370     		strb	r3, [r0]
 238:tmk_core/common/action_util.c **** #    if (defined(ONESHOT_TIMEOUT) && (ONESHOT_TIMEOUT > 0))
 1345              		.loc 2 238 5 is_stmt 1 view .LVU215
 238:tmk_core/common/action_util.c **** #    if (defined(ONESHOT_TIMEOUT) && (ONESHOT_TIMEOUT > 0))
 1346              		.loc 2 238 9 is_stmt 0 view .LVU216
 1347 001a 1278     		ldrb	r2, [r2]	@ zero_extendqisi2
 238:tmk_core/common/action_util.c **** #    if (defined(ONESHOT_TIMEOUT) && (ONESHOT_TIMEOUT > 0))
 1348              		.loc 2 238 8 view .LVU217
 1349 001c 32B1     		cbz	r2, .L127
 245:tmk_core/common/action_util.c ****         if (has_anykey(keyboard_report)) {
 1350              		.loc 2 245 9 is_stmt 1 view .LVU218
 245:tmk_core/common/action_util.c ****         if (has_anykey(keyboard_report)) {
 1351              		.loc 2 245 31 is_stmt 0 view .LVU219
 1352 001e 1343     		orrs	r3, r3, r2
 1353 0020 0370     		strb	r3, [r0]
 246:tmk_core/common/action_util.c ****             clear_oneshot_mods();
 1354              		.loc 2 246 9 is_stmt 1 view .LVU220
 246:tmk_core/common/action_util.c ****             clear_oneshot_mods();
 1355              		.loc 2 246 13 is_stmt 0 view .LVU221
 1356 0022 FFF7FEFF 		bl	has_anykey
 1357              	.LVL46:
 246:tmk_core/common/action_util.c ****             clear_oneshot_mods();
 1358              		.loc 2 246 12 view .LVU222
 1359 0026 08B1     		cbz	r0, .L127
 247:tmk_core/common/action_util.c ****         }
 1360              		.loc 2 247 13 is_stmt 1 view .LVU223
 1361 0028 FFF7FEFF 		bl	clear_oneshot_mods
 1362              	.LVL47:
 1363              	.L127:
 259:tmk_core/common/action_util.c **** }
 1364              		.loc 2 259 5 view .LVU224
 1365 002c 2068     		ldr	r0, [r4]
 260:tmk_core/common/action_util.c **** 
 1366              		.loc 2 260 1 is_stmt 0 view .LVU225
 1367 002e BDE81040 		pop	{r4, lr}
 1368              		.cfi_restore 14
 1369              		.cfi_restore 4
 1370              		.cfi_def_cfa_offset 0
 259:tmk_core/common/action_util.c **** }
 1371              		.loc 2 259 5 view .LVU226
 1372 0032 FFF7FEBF 		b	host_keyboard_send
 1373              	.LVL48:
 1374              	.L133:
 1375 0036 00BF     		.align	2
 1376              	.L132:
 1377 0038 00000000 		.word	.LANCHOR3
 1378 003c 00000000 		.word	.LANCHOR4
 1379 0040 00000000 		.word	.LANCHOR0
 1380 0044 00000000 		.word	.LANCHOR5
 1381 0048 00000000 		.word	.LANCHOR6
 1382              		.cfi_endproc
 1383              	.LFE303:
 1385              		.section	.text.oneshot_layer_changed_user,"ax",%progbits
 1386              		.align	1
 1387              		.weak	oneshot_layer_changed_user
 1388              		.syntax unified
 1389              		.thumb
 1390              		.thumb_func
 1391              		.fpu fpv4-sp-d16
 1393              	oneshot_layer_changed_user:
 1394              	.LFB336:
 1395              		.cfi_startproc
 1396              		@ args = 0, pretend = 0, frame = 0
 1397              		@ frame_needed = 0, uses_anonymous_args = 0
 1398              		@ link register save eliminated.
 1399 0000 7047     		bx	lr
 1400              		.cfi_endproc
 1401              	.LFE336:
 1403              		.section	.text.oneshot_layer_changed_kb,"ax",%progbits
 1404              		.align	1
 1405              		.weak	oneshot_layer_changed_kb
 1406              		.syntax unified
 1407              		.thumb
 1408              		.thumb_func
 1409              		.fpu fpv4-sp-d16
 1411              	oneshot_layer_changed_kb:
 1412              	.LVL49:
 1413              	.LFB329:
 438:tmk_core/common/action_util.c **** 
 439:tmk_core/common/action_util.c **** /** \brief Called when the one shot layers have been changed.
 440:tmk_core/common/action_util.c ****  *
 441:tmk_core/common/action_util.c ****  * \param layer Contains the layer that is toggled on, or zero when toggled off.
 442:tmk_core/common/action_util.c ****  */
 443:tmk_core/common/action_util.c **** __attribute__((weak)) void oneshot_layer_changed_user(uint8_t layer) {}
 444:tmk_core/common/action_util.c **** 
 445:tmk_core/common/action_util.c **** /** \brief Called when the one shot layers have been changed.
 446:tmk_core/common/action_util.c ****  *
 447:tmk_core/common/action_util.c ****  * \param layer Contains the layer that is toggled on, or zero when toggled off.
 448:tmk_core/common/action_util.c ****  */
 449:tmk_core/common/action_util.c **** __attribute__((weak)) void oneshot_layer_changed_kb(uint8_t layer) { oneshot_layer_changed_user(lay
 1414              		.loc 2 449 68 is_stmt 1 view -0
 1415              		.cfi_startproc
 1416              		@ args = 0, pretend = 0, frame = 0
 1417              		@ frame_needed = 0, uses_anonymous_args = 0
 1418              		.loc 2 449 70 view .LVU228
 1419              		.loc 2 449 68 is_stmt 0 view .LVU229
 1420 0000 08B5     		push	{r3, lr}
 1421              		.cfi_def_cfa_offset 8
 1422              		.cfi_offset 3, -8
 1423              		.cfi_offset 14, -4
 1424              		.loc 2 449 70 view .LVU230
 1425 0002 FFF7FEFF 		bl	oneshot_layer_changed_user
 1426              	.LVL50:
 1427              		.loc 2 449 105 view .LVU231
 1428 0006 08BD     		pop	{r3, pc}
 1429              		.cfi_endproc
 1430              	.LFE329:
 1432              		.section	.text.set_oneshot_layer,"ax",%progbits
 1433              		.align	1
 1434              		.global	set_oneshot_layer
 1435              		.syntax unified
 1436              		.thumb
 1437              		.thumb_func
 1438              		.fpu fpv4-sp-d16
 1440              	set_oneshot_layer:
 1441              	.LVL51:
 1442              	.LFB294:
 153:tmk_core/common/action_util.c ****     if (!keymap_config.oneshot_disable) {
 1443              		.loc 2 153 54 is_stmt 1 view -0
 1444              		.cfi_startproc
 1445              		@ args = 0, pretend = 0, frame = 0
 1446              		@ frame_needed = 0, uses_anonymous_args = 0
 154:tmk_core/common/action_util.c ****         oneshot_layer_data = layer << 3 | state;
 1447              		.loc 2 154 5 view .LVU233
 154:tmk_core/common/action_util.c ****         oneshot_layer_data = layer << 3 | state;
 1448              		.loc 2 154 23 is_stmt 0 view .LVU234
 1449 0000 0A4A     		ldr	r2, .L140
 1450 0002 5278     		ldrb	r2, [r2, #1]	@ zero_extendqisi2
 154:tmk_core/common/action_util.c ****         oneshot_layer_data = layer << 3 | state;
 1451              		.loc 2 154 8 view .LVU235
 1452 0004 5207     		lsls	r2, r2, #29
 153:tmk_core/common/action_util.c ****     if (!keymap_config.oneshot_disable) {
 1453              		.loc 2 153 54 view .LVU236
 1454 0006 10B5     		push	{r4, lr}
 1455              		.cfi_def_cfa_offset 8
 1456              		.cfi_offset 4, -8
 1457              		.cfi_offset 14, -4
 154:tmk_core/common/action_util.c ****         oneshot_layer_data = layer << 3 | state;
 1458              		.loc 2 154 8 view .LVU237
 1459 0008 0CD4     		bmi	.L137
 155:tmk_core/common/action_util.c ****         layer_on(layer);
 1460              		.loc 2 155 9 is_stmt 1 view .LVU238
 155:tmk_core/common/action_util.c ****         layer_on(layer);
 1461              		.loc 2 155 28 is_stmt 0 view .LVU239
 1462 000a 094C     		ldr	r4, .L140+4
 155:tmk_core/common/action_util.c ****         layer_on(layer);
 1463              		.loc 2 155 41 view .LVU240
 1464 000c 41EAC001 		orr	r1, r1, r0, lsl #3
 1465              	.LVL52:
 155:tmk_core/common/action_util.c ****         layer_on(layer);
 1466              		.loc 2 155 28 view .LVU241
 1467 0010 2170     		strb	r1, [r4]
 156:tmk_core/common/action_util.c **** #    if (defined(ONESHOT_TIMEOUT) && (ONESHOT_TIMEOUT > 0))
 1468              		.loc 2 156 9 is_stmt 1 view .LVU242
 1469 0012 FFF7FEFF 		bl	layer_on
 1470              	.LVL53:
 160:tmk_core/common/action_util.c ****     } else {
 1471              		.loc 2 160 9 view .LVU243
 1472              	.LBB24:
 1473              	.LBI24:
  87:tmk_core/common/action_util.c **** inline uint8_t get_oneshot_layer_state(void) { return oneshot_layer_data & 0b111; }
 1474              		.loc 2 87 16 view .LVU244
 1475              	.LBB25:
  87:tmk_core/common/action_util.c **** inline uint8_t get_oneshot_layer_state(void) { return oneshot_layer_data & 0b111; }
 1476              		.loc 2 87 42 view .LVU245
  87:tmk_core/common/action_util.c **** inline uint8_t get_oneshot_layer_state(void) { return oneshot_layer_data & 0b111; }
 1477              		.loc 2 87 68 is_stmt 0 view .LVU246
 1478 0016 94F90000 		ldrsb	r0, [r4]
 1479              	.LBE25:
 1480              	.LBE24:
 160:tmk_core/common/action_util.c ****     } else {
 1481              		.loc 2 160 9 view .LVU247
 1482 001a C0F3C700 		ubfx	r0, r0, #3, #8
 1483 001e FFF7FEFF 		bl	oneshot_layer_changed_kb
 1484              	.LVL54:
 164:tmk_core/common/action_util.c **** /** \brief Reset oneshot layer
 1485              		.loc 2 164 1 view .LVU248
 1486 0022 10BD     		pop	{r4, pc}
 1487              	.LVL55:
 1488              	.L137:
 162:tmk_core/common/action_util.c ****     }
 1489              		.loc 2 162 9 is_stmt 1 view .LVU249
 164:tmk_core/common/action_util.c **** /** \brief Reset oneshot layer
 1490              		.loc 2 164 1 is_stmt 0 view .LVU250
 1491 0024 BDE81040 		pop	{r4, lr}
 1492              		.cfi_restore 14
 1493              		.cfi_restore 4
 1494              		.cfi_def_cfa_offset 0
 162:tmk_core/common/action_util.c ****     }
 1495              		.loc 2 162 9 view .LVU251
 1496 0028 FFF7FEBF 		b	layer_on
 1497              	.LVL56:
 1498              	.L141:
 162:tmk_core/common/action_util.c ****     }
 1499              		.loc 2 162 9 view .LVU252
 1500              		.align	2
 1501              	.L140:
 1502 002c 00000000 		.word	keymap_config
 1503 0030 00000000 		.word	.LANCHOR2
 1504              		.cfi_endproc
 1505              	.LFE294:
 1507              		.section	.text.reset_oneshot_layer,"ax",%progbits
 1508              		.align	1
 1509              		.global	reset_oneshot_layer
 1510              		.syntax unified
 1511              		.thumb
 1512              		.thumb_func
 1513              		.fpu fpv4-sp-d16
 1515              	reset_oneshot_layer:
 1516              	.LFB295:
 169:tmk_core/common/action_util.c ****     oneshot_layer_data = 0;
 1517              		.loc 2 169 32 is_stmt 1 view -0
 1518              		.cfi_startproc
 1519              		@ args = 0, pretend = 0, frame = 0
 1520              		@ frame_needed = 0, uses_anonymous_args = 0
 170:tmk_core/common/action_util.c **** #    if (defined(ONESHOT_TIMEOUT) && (ONESHOT_TIMEOUT > 0))
 1521              		.loc 2 170 5 view .LVU254
 169:tmk_core/common/action_util.c ****     oneshot_layer_data = 0;
 1522              		.loc 2 169 32 is_stmt 0 view .LVU255
 1523 0000 08B5     		push	{r3, lr}
 1524              		.cfi_def_cfa_offset 8
 1525              		.cfi_offset 3, -8
 1526              		.cfi_offset 14, -4
 170:tmk_core/common/action_util.c **** #    if (defined(ONESHOT_TIMEOUT) && (ONESHOT_TIMEOUT > 0))
 1527              		.loc 2 170 24 view .LVU256
 1528 0002 034B     		ldr	r3, .L143
 1529 0004 0020     		movs	r0, #0
 1530 0006 1870     		strb	r0, [r3]
 174:tmk_core/common/action_util.c **** }
 1531              		.loc 2 174 5 is_stmt 1 view .LVU257
  87:tmk_core/common/action_util.c **** inline uint8_t get_oneshot_layer_state(void) { return oneshot_layer_data & 0b111; }
 1532              		.loc 2 87 42 view .LVU258
 174:tmk_core/common/action_util.c **** }
 1533              		.loc 2 174 5 is_stmt 0 view .LVU259
 1534 0008 FFF7FEFF 		bl	oneshot_layer_changed_kb
 1535              	.LVL57:
 175:tmk_core/common/action_util.c **** /** \brief Clear oneshot layer
 1536              		.loc 2 175 1 view .LVU260
 1537 000c 08BD     		pop	{r3, pc}
 1538              	.L144:
 1539 000e 00BF     		.align	2
 1540              	.L143:
 1541 0010 00000000 		.word	.LANCHOR2
 1542              		.cfi_endproc
 1543              	.LFE295:
 1545              		.section	.text.clear_oneshot_layer_state,"ax",%progbits
 1546              		.align	1
 1547              		.global	clear_oneshot_layer_state
 1548              		.syntax unified
 1549              		.thumb
 1550              		.thumb_func
 1551              		.fpu fpv4-sp-d16
 1553              	clear_oneshot_layer_state:
 1554              	.LVL58:
 1555              	.LFB296:
 180:tmk_core/common/action_util.c ****     uint8_t start_state = oneshot_layer_data;
 1556              		.loc 2 180 62 is_stmt 1 view -0
 1557              		.cfi_startproc
 1558              		@ args = 0, pretend = 0, frame = 0
 1559              		@ frame_needed = 0, uses_anonymous_args = 0
 181:tmk_core/common/action_util.c ****     oneshot_layer_data &= ~state;
 1560              		.loc 2 181 5 view .LVU262
 180:tmk_core/common/action_util.c ****     uint8_t start_state = oneshot_layer_data;
 1561              		.loc 2 180 62 is_stmt 0 view .LVU263
 1562 0000 08B5     		push	{r3, lr}
 1563              		.cfi_def_cfa_offset 8
 1564              		.cfi_offset 3, -8
 1565              		.cfi_offset 14, -4
 181:tmk_core/common/action_util.c ****     oneshot_layer_data &= ~state;
 1566              		.loc 2 181 13 view .LVU264
 1567 0002 0C4A     		ldr	r2, .L149
 1568 0004 92F90030 		ldrsb	r3, [r2]
 1569              	.LVL59:
 182:tmk_core/common/action_util.c ****     if ((!get_oneshot_layer_state() && start_state != oneshot_layer_data) || keymap_config.oneshot_
 1570              		.loc 2 182 5 is_stmt 1 view .LVU265
 182:tmk_core/common/action_util.c ****     if ((!get_oneshot_layer_state() && start_state != oneshot_layer_data) || keymap_config.oneshot_
 1571              		.loc 2 182 24 is_stmt 0 view .LVU266
 1572 0008 23EA0000 		bic	r0, r3, r0
 1573              	.LVL60:
 182:tmk_core/common/action_util.c ****     if ((!get_oneshot_layer_state() && start_state != oneshot_layer_data) || keymap_config.oneshot_
 1574              		.loc 2 182 24 view .LVU267
 1575 000c 40B2     		sxtb	r0, r0
 1576 000e 1070     		strb	r0, [r2]
 183:tmk_core/common/action_util.c ****         layer_off(get_oneshot_layer());
 1577              		.loc 2 183 5 is_stmt 1 view .LVU268
 1578              	.LBB26:
 1579              	.LBI26:
  88:tmk_core/common/action_util.c **** 
 1580              		.loc 2 88 16 view .LVU269
 1581              	.LBB27:
  88:tmk_core/common/action_util.c **** 
 1582              		.loc 2 88 48 view .LVU270
 1583              	.LBE27:
 1584              	.LBE26:
 183:tmk_core/common/action_util.c ****         layer_off(get_oneshot_layer());
 1585              		.loc 2 183 8 is_stmt 0 view .LVU271
 1586 0010 4207     		lsls	r2, r0, #29
 1587 0012 02D1     		bne	.L146
 183:tmk_core/common/action_util.c ****         layer_off(get_oneshot_layer());
 1588              		.loc 2 183 52 discriminator 1 view .LVU272
 1589 0014 DBB2     		uxtb	r3, r3
 183:tmk_core/common/action_util.c ****         layer_off(get_oneshot_layer());
 1590              		.loc 2 183 37 discriminator 1 view .LVU273
 1591 0016 8342     		cmp	r3, r0
 1592 0018 03D1     		bne	.L147
 1593              	.LVL61:
 1594              	.L146:
 183:tmk_core/common/action_util.c ****         layer_off(get_oneshot_layer());
 1595              		.loc 2 183 75 discriminator 3 view .LVU274
 1596 001a 074B     		ldr	r3, .L149+4
 1597 001c 5B78     		ldrb	r3, [r3, #1]	@ zero_extendqisi2
 1598 001e 5B07     		lsls	r3, r3, #29
 1599 0020 07D5     		bpl	.L145
 1600              	.L147:
 184:tmk_core/common/action_util.c ****         reset_oneshot_layer();
 1601              		.loc 2 184 9 is_stmt 1 view .LVU275
 1602              	.LBB28:
 1603              	.LBI28:
  87:tmk_core/common/action_util.c **** inline uint8_t get_oneshot_layer_state(void) { return oneshot_layer_data & 0b111; }
 1604              		.loc 2 87 16 view .LVU276
 1605              	.LBB29:
  87:tmk_core/common/action_util.c **** inline uint8_t get_oneshot_layer_state(void) { return oneshot_layer_data & 0b111; }
 1606              		.loc 2 87 42 view .LVU277
 1607              	.LBE29:
 1608              	.LBE28:
 184:tmk_core/common/action_util.c ****         reset_oneshot_layer();
 1609              		.loc 2 184 9 is_stmt 0 view .LVU278
 1610 0022 C0F3C700 		ubfx	r0, r0, #3, #8
 1611 0026 FFF7FEFF 		bl	layer_off
 1612              	.LVL62:
 185:tmk_core/common/action_util.c ****     }
 1613              		.loc 2 185 9 is_stmt 1 view .LVU279
 187:tmk_core/common/action_util.c **** /** \brief Is oneshot layer active
 1614              		.loc 2 187 1 is_stmt 0 view .LVU280
 1615 002a BDE80840 		pop	{r3, lr}
 1616              		.cfi_remember_state
 1617              		.cfi_restore 14
 1618              		.cfi_restore 3
 1619              		.cfi_def_cfa_offset 0
 185:tmk_core/common/action_util.c ****     }
 1620              		.loc 2 185 9 view .LVU281
 1621 002e FFF7FEBF 		b	reset_oneshot_layer
 1622              	.LVL63:
 1623              	.L145:
 1624              		.cfi_restore_state
 187:tmk_core/common/action_util.c **** /** \brief Is oneshot layer active
 1625              		.loc 2 187 1 view .LVU282
 1626 0032 08BD     		pop	{r3, pc}
 1627              	.L150:
 1628              		.align	2
 1629              	.L149:
 1630 0034 00000000 		.word	.LANCHOR2
 1631 0038 00000000 		.word	keymap_config
 1632              		.cfi_endproc
 1633              	.LFE296:
 1635              		.section	.text.has_anymod,"ax",%progbits
 1636              		.align	1
 1637              		.global	has_anymod
 1638              		.syntax unified
 1639              		.thumb
 1640              		.thumb_func
 1641              		.fpu fpv4-sp-d16
 1643              	has_anymod:
 1644              	.LFB330:
 450:tmk_core/common/action_util.c **** 
 451:tmk_core/common/action_util.c **** /** \brief inspect keyboard state
 452:tmk_core/common/action_util.c ****  *
 453:tmk_core/common/action_util.c ****  * FIXME: needs doc
 454:tmk_core/common/action_util.c ****  */
 455:tmk_core/common/action_util.c **** uint8_t has_anymod(void) { return bitpop(real_mods); }
 1645              		.loc 2 455 26 is_stmt 1 view -0
 1646              		.cfi_startproc
 1647              		@ args = 0, pretend = 0, frame = 0
 1648              		@ frame_needed = 0, uses_anonymous_args = 0
 1649              		@ link register save eliminated.
 1650              		.loc 2 455 28 view .LVU284
 1651              		.loc 2 455 35 is_stmt 0 view .LVU285
 1652 0000 014B     		ldr	r3, .L152
 1653 0002 1878     		ldrb	r0, [r3]	@ zero_extendqisi2
 1654 0004 FFF7FEBF 		b	bitpop
 1655              	.LVL64:
 1656              	.L153:
 1657              		.align	2
 1658              	.L152:
 1659 0008 00000000 		.word	.LANCHOR3
 1660              		.cfi_endproc
 1661              	.LFE330:
 1663              		.global	keyboard_report
 1664              		.section	.bss.__compound_literal.0,"aw",%nobits
 1667              	__compound_literal.0:
 1668 0000 00000000 		.space	32
 1668      00000000 
 1668      00000000 
 1668      00000000 
 1668      00000000 
 1669              		.section	.bss.macro_mods,"aw",%nobits
 1670              		.set	.LANCHOR5,. + 0
 1673              	macro_mods:
 1674 0000 00       		.space	1
 1675              		.section	.bss.oneshot_layer_data,"aw",%nobits
 1676              		.set	.LANCHOR2,. + 0
 1679              	oneshot_layer_data:
 1680 0000 00       		.space	1
 1681              		.section	.bss.oneshot_locked_mods,"aw",%nobits
 1682              		.set	.LANCHOR1,. + 0
 1685              	oneshot_locked_mods:
 1686 0000 00       		.space	1
 1687              		.section	.bss.oneshot_mods,"aw",%nobits
 1688              		.set	.LANCHOR6,. + 0
 1691              	oneshot_mods:
 1692 0000 00       		.space	1
 1693              		.section	.bss.real_mods,"aw",%nobits
 1694              		.set	.LANCHOR3,. + 0
 1697              	real_mods:
 1698 0000 00       		.space	1
 1699              		.section	.bss.weak_mods,"aw",%nobits
 1700              		.set	.LANCHOR4,. + 0
 1703              	weak_mods:
 1704 0000 00       		.space	1
 1705              		.section	.data.keyboard_report,"aw"
 1706              		.align	2
 1707              		.set	.LANCHOR0,. + 0
 1710              	keyboard_report:
 1711 0000 00000000 		.word	__compound_literal.0
 1712              		.text
 1713              	.Letext0:
 1714              		.file 3 "c:\\qmk_msys\\mingw64\\arm-none-eabi\\include\\machine\\_default_types.h"
 1715              		.file 4 "c:\\qmk_msys\\mingw64\\arm-none-eabi\\include\\sys\\_stdint.h"
 1716              		.file 5 "tmk_core/common/report.h"
 1717              		.file 6 "quantum/logging/debug.h"
 1718              		.file 7 "quantum/keycode_config.h"
 1719              		.file 8 "quantum/bitwise.h"
 1720              		.file 9 "tmk_core/common/host.h"
 1721              		.file 10 "tmk_core/common/action_layer.h"
 1722              		.file 11 "tmk_core/common/eeconfig.h"
 1723              		.file 12 "lib/printf/printf.h"