   1              		.cpu cortex-m4
   2              		.eabi_attribute 27, 1
   3              		.eabi_attribute 28, 1
   4              		.eabi_attribute 20, 1
   5              		.eabi_attribute 21, 1
   6              		.eabi_attribute 23, 3
   7              		.eabi_attribute 24, 1
   8              		.eabi_attribute 25, 1
   9              		.eabi_attribute 26, 1
  10              		.eabi_attribute 30, 4
  11              		.eabi_attribute 34, 1
  12              		.eabi_attribute 18, 2
  13              		.file	"host.c"
  14              		.text
  15              	.Ltext0:
  16              		.cfi_sections	.debug_frame
  17              		.section	.text.host_set_driver,"ax",%progbits
  18              		.align	1
  19              		.global	host_set_driver
  20              		.arch armv7e-m
  21              		.syntax unified
  22              		.thumb
  23              		.thumb_func
  24              		.fpu fpv4-sp-d16
  26              	host_set_driver:
  27              	.LVL0:
  28              	.LFB283:
  29              		.file 1 "tmk_core/common/host.c"
   1:tmk_core/common/host.c **** /*
   2:tmk_core/common/host.c **** Copyright 2011,2012 Jun Wako <wakojun@gmail.com>
   3:tmk_core/common/host.c **** 
   4:tmk_core/common/host.c **** This program is free software: you can redistribute it and/or modify
   5:tmk_core/common/host.c **** it under the terms of the GNU General Public License as published by
   6:tmk_core/common/host.c **** the Free Software Foundation, either version 2 of the License, or
   7:tmk_core/common/host.c **** (at your option) any later version.
   8:tmk_core/common/host.c **** 
   9:tmk_core/common/host.c **** This program is distributed in the hope that it will be useful,
  10:tmk_core/common/host.c **** but WITHOUT ANY WARRANTY; without even the implied warranty of
  11:tmk_core/common/host.c **** MERCHANTABILITY or FITNESS FOR A PARTICULAR PURPOSE.  See the
  12:tmk_core/common/host.c **** GNU General Public License for more details.
  13:tmk_core/common/host.c **** 
  14:tmk_core/common/host.c **** You should have received a copy of the GNU General Public License
  15:tmk_core/common/host.c **** along with this program.  If not, see <http://www.gnu.org/licenses/>.
  16:tmk_core/common/host.c **** */
  17:tmk_core/common/host.c **** 
  18:tmk_core/common/host.c **** #include <stdint.h>
  19:tmk_core/common/host.c **** //#include <avr/interrupt.h>
  20:tmk_core/common/host.c **** #include "keyboard.h"
  21:tmk_core/common/host.c **** #include "keycode.h"
  22:tmk_core/common/host.c **** #include "host.h"
  23:tmk_core/common/host.c **** #include "util.h"
  24:tmk_core/common/host.c **** #include "debug.h"
  25:tmk_core/common/host.c **** 
  26:tmk_core/common/host.c **** #ifdef NKRO_ENABLE
  27:tmk_core/common/host.c **** #    include "keycode_config.h"
  28:tmk_core/common/host.c **** extern keymap_config_t keymap_config;
  29:tmk_core/common/host.c **** #endif
  30:tmk_core/common/host.c **** 
  31:tmk_core/common/host.c **** static host_driver_t *driver;
  32:tmk_core/common/host.c **** static uint16_t       last_system_report   = 0;
  33:tmk_core/common/host.c **** static uint16_t       last_consumer_report = 0;
  34:tmk_core/common/host.c **** 
  35:tmk_core/common/host.c **** void host_set_driver(host_driver_t *d) { driver = d; }
  30              		.loc 1 35 40 view -0
  31              		.cfi_startproc
  32              		@ args = 0, pretend = 0, frame = 0
  33              		@ frame_needed = 0, uses_anonymous_args = 0
  34              		@ link register save eliminated.
  35              		.loc 1 35 42 view .LVU1
  36              		.loc 1 35 49 is_stmt 0 view .LVU2
  37 0000 014B     		ldr	r3, .L2
  38 0002 1860     		str	r0, [r3]
  39              		.loc 1 35 54 view .LVU3
  40 0004 7047     		bx	lr
  41              	.L3:
  42 0006 00BF     		.align	2
  43              	.L2:
  44 0008 00000000 		.word	.LANCHOR0
  45              		.cfi_endproc
  46              	.LFE283:
  48              		.section	.text.host_get_driver,"ax",%progbits
  49              		.align	1
  50              		.global	host_get_driver
  51              		.syntax unified
  52              		.thumb
  53              		.thumb_func
  54              		.fpu fpv4-sp-d16
  56              	host_get_driver:
  57              	.LFB284:
  36:tmk_core/common/host.c **** 
  37:tmk_core/common/host.c **** host_driver_t *host_get_driver(void) { return driver; }
  58              		.loc 1 37 38 is_stmt 1 view -0
  59              		.cfi_startproc
  60              		@ args = 0, pretend = 0, frame = 0
  61              		@ frame_needed = 0, uses_anonymous_args = 0
  62              		@ link register save eliminated.
  63              		.loc 1 37 40 view .LVU5
  64              		.loc 1 37 55 is_stmt 0 view .LVU6
  65 0000 014B     		ldr	r3, .L5
  66 0002 1868     		ldr	r0, [r3]
  67 0004 7047     		bx	lr
  68              	.L6:
  69 0006 00BF     		.align	2
  70              	.L5:
  71 0008 00000000 		.word	.LANCHOR0
  72              		.cfi_endproc
  73              	.LFE284:
  75              		.section	.text.host_keyboard_leds,"ax",%progbits
  76              		.align	1
  77              		.global	host_keyboard_leds
  78              		.syntax unified
  79              		.thumb
  80              		.thumb_func
  81              		.fpu fpv4-sp-d16
  83              	host_keyboard_leds:
  84              	.LFB285:
  38:tmk_core/common/host.c **** 
  39:tmk_core/common/host.c **** #ifdef SPLIT_KEYBOARD
  40:tmk_core/common/host.c **** uint8_t split_led_state = 0;
  41:tmk_core/common/host.c **** void    set_split_host_keyboard_leds(uint8_t led_state) { split_led_state = led_state; }
  42:tmk_core/common/host.c **** #endif
  43:tmk_core/common/host.c **** 
  44:tmk_core/common/host.c **** uint8_t host_keyboard_leds(void) {
  85              		.loc 1 44 34 is_stmt 1 view -0
  86              		.cfi_startproc
  87              		@ args = 0, pretend = 0, frame = 0
  88              		@ frame_needed = 0, uses_anonymous_args = 0
  89              		@ link register save eliminated.
  45:tmk_core/common/host.c **** #ifdef SPLIT_KEYBOARD
  46:tmk_core/common/host.c ****     if (!is_keyboard_master()) return split_led_state;
  47:tmk_core/common/host.c **** #endif
  48:tmk_core/common/host.c ****     if (!driver) return 0;
  90              		.loc 1 48 5 view .LVU8
  91              		.loc 1 48 9 is_stmt 0 view .LVU9
  92 0000 024B     		ldr	r3, .L9
  93 0002 1868     		ldr	r0, [r3]
  94              		.loc 1 48 8 view .LVU10
  95 0004 08B1     		cbz	r0, .L8
  49:tmk_core/common/host.c ****     return (*driver->keyboard_leds)();
  96              		.loc 1 49 5 is_stmt 1 view .LVU11
  97              		.loc 1 49 13 is_stmt 0 view .LVU12
  98 0006 0368     		ldr	r3, [r0]
  99 0008 1847     		bx	r3
 100              	.LVL1:
 101              	.L8:
  50:tmk_core/common/host.c **** }
 102              		.loc 1 50 1 view .LVU13
 103 000a 7047     		bx	lr
 104              	.L10:
 105              		.align	2
 106              	.L9:
 107 000c 00000000 		.word	.LANCHOR0
 108              		.cfi_endproc
 109              	.LFE285:
 111              		.section	.text.host_keyboard_led_state,"ax",%progbits
 112              		.align	1
 113              		.global	host_keyboard_led_state
 114              		.syntax unified
 115              		.thumb
 116              		.thumb_func
 117              		.fpu fpv4-sp-d16
 119              	host_keyboard_led_state:
 120              	.LFB286:
  51:tmk_core/common/host.c **** 
  52:tmk_core/common/host.c **** led_t host_keyboard_led_state(void) { return (led_t)host_keyboard_leds(); }
 121              		.loc 1 52 37 is_stmt 1 view -0
 122              		.cfi_startproc
 123              		@ args = 0, pretend = 0, frame = 0
 124              		@ frame_needed = 0, uses_anonymous_args = 0
 125              		.loc 1 52 39 view .LVU15
 126              		.loc 1 52 37 is_stmt 0 view .LVU16
 127 0000 08B5     		push	{r3, lr}
 128              		.cfi_def_cfa_offset 8
 129              		.cfi_offset 3, -8
 130              		.cfi_offset 14, -4
 131              		.loc 1 52 53 view .LVU17
 132 0002 FFF7FEFF 		bl	host_keyboard_leds
 133              	.LVL2:
 134              		.loc 1 52 75 view .LVU18
 135 0006 08BD     		pop	{r3, pc}
 136              		.cfi_endproc
 137              	.LFE286:
 139              		.section	.rodata.host_keyboard_send.str1.1,"aMS",%progbits,1
 140              	.LC0:
 141 0000 6B657962 		.ascii	"keyboard_report: \000"
 141      6F617264 
 141      5F726570 
 141      6F72743A 
 141      2000
 142              	.LC1:
 143 0012 25303258 		.ascii	"%02X \000"
 143      2000
 144              	.LC2:
 145 0018 0A00     		.ascii	"\012\000"
 146              		.section	.text.host_keyboard_send,"ax",%progbits
 147              		.align	1
 148              		.global	host_keyboard_send
 149              		.syntax unified
 150              		.thumb
 151              		.thumb_func
 152              		.fpu fpv4-sp-d16
 154              	host_keyboard_send:
 155              	.LVL3:
 156              	.LFB287:
  53:tmk_core/common/host.c **** 
  54:tmk_core/common/host.c **** /* send report */
  55:tmk_core/common/host.c **** void host_keyboard_send(report_keyboard_t *report) {
 157              		.loc 1 55 52 is_stmt 1 view -0
 158              		.cfi_startproc
 159              		@ args = 0, pretend = 0, frame = 0
 160              		@ frame_needed = 0, uses_anonymous_args = 0
  56:tmk_core/common/host.c ****     if (!driver) return;
 161              		.loc 1 56 5 view .LVU20
  55:tmk_core/common/host.c ****     if (!driver) return;
 162              		.loc 1 55 52 is_stmt 0 view .LVU21
 163 0000 F8B5     		push	{r3, r4, r5, r6, r7, lr}
 164              		.cfi_def_cfa_offset 24
 165              		.cfi_offset 3, -24
 166              		.cfi_offset 4, -20
 167              		.cfi_offset 5, -16
 168              		.cfi_offset 6, -12
 169              		.cfi_offset 7, -8
 170              		.cfi_offset 14, -4
 171              		.loc 1 56 9 view .LVU22
 172 0002 194B     		ldr	r3, .L36
 173 0004 1B68     		ldr	r3, [r3]
  55:tmk_core/common/host.c ****     if (!driver) return;
 174              		.loc 1 55 52 view .LVU23
 175 0006 0446     		mov	r4, r0
 176              		.loc 1 56 8 view .LVU24
 177 0008 002B     		cmp	r3, #0
 178 000a 2CD0     		beq	.L12
  57:tmk_core/common/host.c **** #if defined(NKRO_ENABLE) && defined(NKRO_SHARED_EP)
  58:tmk_core/common/host.c ****     if (keyboard_protocol && keymap_config.nkro) {
 179              		.loc 1 58 5 is_stmt 1 view .LVU25
 180              		.loc 1 58 9 is_stmt 0 view .LVU26
 181 000c 174A     		ldr	r2, .L36+4
 182              		.loc 1 58 8 view .LVU27
 183 000e 1278     		ldrb	r2, [r2]	@ zero_extendqisi2
 184 0010 42B1     		cbz	r2, .L15
 185              		.loc 1 58 27 discriminator 1 view .LVU28
 186 0012 174A     		ldr	r2, .L36+8
 187 0014 92F90020 		ldrsb	r2, [r2]
 188 0018 002A     		cmp	r2, #0
  59:tmk_core/common/host.c ****         /* The callers of this function assume that report->mods is where mods go in.
  60:tmk_core/common/host.c ****          * But report->nkro.mods can be at a different offset if core keyboard does not have a repo
  61:tmk_core/common/host.c ****          */
  62:tmk_core/common/host.c ****         report->nkro.mods      = report->mods;
 189              		.loc 1 62 9 is_stmt 1 discriminator 1 view .LVU29
 190              		.loc 1 62 32 is_stmt 0 discriminator 1 view .LVU30
 191 001a BFBF     		itttt	lt
 192 001c 0278     		ldrblt	r2, [r0]	@ zero_extendqisi2
 193 001e 4270     		strblt	r2, [r0, #1]
  63:tmk_core/common/host.c ****         report->nkro.report_id = REPORT_ID_NKRO;
 194              		.loc 1 63 9 is_stmt 1 discriminator 1 view .LVU31
 195              		.loc 1 63 32 is_stmt 0 discriminator 1 view .LVU32
 196 0020 0522     		movlt	r2, #5
 197 0022 0270     		strblt	r2, [r0]
 198              	.L15:
  64:tmk_core/common/host.c ****     } else
  65:tmk_core/common/host.c **** #endif
  66:tmk_core/common/host.c ****     {
  67:tmk_core/common/host.c **** #ifdef KEYBOARD_SHARED_EP
  68:tmk_core/common/host.c ****         report->report_id = REPORT_ID_KEYBOARD;
  69:tmk_core/common/host.c **** #endif
  70:tmk_core/common/host.c ****     }
 199              		.loc 1 70 5 is_stmt 1 view .LVU33
  71:tmk_core/common/host.c ****     (*driver->send_keyboard)(report);
 200              		.loc 1 71 5 view .LVU34
  72:tmk_core/common/host.c **** 
  73:tmk_core/common/host.c ****     if (debug_keyboard) {
 201              		.loc 1 73 9 is_stmt 0 view .LVU35
 202 0024 134D     		ldr	r5, .L36+12
  71:tmk_core/common/host.c ****     (*driver->send_keyboard)(report);
 203              		.loc 1 71 6 view .LVU36
 204 0026 5B68     		ldr	r3, [r3, #4]
 205 0028 2046     		mov	r0, r4
 206              	.LVL4:
  71:tmk_core/common/host.c ****     (*driver->send_keyboard)(report);
 207              		.loc 1 71 6 view .LVU37
 208 002a 9847     		blx	r3
 209              	.LVL5:
 210              		.loc 1 73 5 is_stmt 1 view .LVU38
 211              		.loc 1 73 9 is_stmt 0 view .LVU39
 212 002c 2B78     		ldrb	r3, [r5]	@ zero_extendqisi2
 213              		.loc 1 73 8 view .LVU40
 214 002e 5807     		lsls	r0, r3, #29
 215 0030 19D5     		bpl	.L12
  74:tmk_core/common/host.c ****         dprint("keyboard_report: ");
 216              		.loc 1 74 9 is_stmt 1 view .LVU41
 217              		.loc 1 74 9 view .LVU42
 218 0032 D907     		lsls	r1, r3, #31
 219 0034 02D5     		bpl	.L17
 220              		.loc 1 74 9 discriminator 1 view .LVU43
 221 0036 1048     		ldr	r0, .L36+16
 222 0038 FFF7FEFF 		bl	printf_
 223              	.LVL6:
 224              	.L17:
 225              	.LBB2:
  75:tmk_core/common/host.c ****         for (uint8_t i = 0; i < KEYBOARD_REPORT_SIZE; i++) {
  76:tmk_core/common/host.c ****             dprintf("%02X ", report->raw[i]);
 226              		.loc 1 76 13 is_stmt 0 view .LVU44
 227 003c 0F4F     		ldr	r7, .L36+20
 228 003e 04F10806 		add	r6, r4, #8
 229              	.LVL7:
 230              	.L19:
 231              		.loc 1 76 13 is_stmt 1 view .LVU45
 232              		.loc 1 76 13 view .LVU46
 233 0042 2B78     		ldrb	r3, [r5]	@ zero_extendqisi2
 234 0044 DA07     		lsls	r2, r3, #31
 235 0046 03D5     		bpl	.L18
 236              		.loc 1 76 13 discriminator 1 view .LVU47
 237 0048 2178     		ldrb	r1, [r4]	@ zero_extendqisi2
 238 004a 3846     		mov	r0, r7
 239 004c FFF7FEFF 		bl	printf_
 240              	.LVL8:
 241              	.L18:
 242              		.loc 1 76 13 discriminator 3 view .LVU48
  75:tmk_core/common/host.c ****         for (uint8_t i = 0; i < KEYBOARD_REPORT_SIZE; i++) {
 243              		.loc 1 75 55 discriminator 3 view .LVU49
  75:tmk_core/common/host.c ****         for (uint8_t i = 0; i < KEYBOARD_REPORT_SIZE; i++) {
 244              		.loc 1 75 29 discriminator 3 view .LVU50
  75:tmk_core/common/host.c ****         for (uint8_t i = 0; i < KEYBOARD_REPORT_SIZE; i++) {
 245              		.loc 1 75 9 is_stmt 0 discriminator 3 view .LVU51
 246 0050 0134     		adds	r4, r4, #1
 247              	.LVL9:
  75:tmk_core/common/host.c ****         for (uint8_t i = 0; i < KEYBOARD_REPORT_SIZE; i++) {
 248              		.loc 1 75 9 discriminator 3 view .LVU52
 249 0052 B442     		cmp	r4, r6
 250 0054 F5D1     		bne	.L19
 251              	.LBE2:
  77:tmk_core/common/host.c ****         }
  78:tmk_core/common/host.c ****         dprint("\n");
 252              		.loc 1 78 9 is_stmt 1 view .LVU53
 253              		.loc 1 78 9 view .LVU54
 254 0056 2B78     		ldrb	r3, [r5]	@ zero_extendqisi2
 255 0058 DB07     		lsls	r3, r3, #31
 256 005a 04D5     		bpl	.L12
 257              		.loc 1 78 9 discriminator 1 view .LVU55
  79:tmk_core/common/host.c ****     }
  80:tmk_core/common/host.c **** }
 258              		.loc 1 80 1 is_stmt 0 discriminator 1 view .LVU56
 259 005c BDE8F840 		pop	{r3, r4, r5, r6, r7, lr}
 260              		.cfi_remember_state
 261              		.cfi_restore 14
 262              		.cfi_restore 7
 263              		.cfi_restore 6
 264              		.cfi_restore 5
 265              		.cfi_restore 4
 266              		.cfi_restore 3
 267              		.cfi_def_cfa_offset 0
 268              	.LVL10:
  78:tmk_core/common/host.c ****     }
 269              		.loc 1 78 9 discriminator 1 view .LVU57
 270 0060 0748     		ldr	r0, .L36+24
 271 0062 FFF7FEBF 		b	printf_
 272              	.LVL11:
 273              	.L12:
 274              		.cfi_restore_state
 275              		.loc 1 80 1 view .LVU58
 276 0066 F8BD     		pop	{r3, r4, r5, r6, r7, pc}
 277              	.L37:
 278              		.align	2
 279              	.L36:
 280 0068 00000000 		.word	.LANCHOR0
 281 006c 00000000 		.word	keyboard_protocol
 282 0070 00000000 		.word	keymap_config
 283 0074 00000000 		.word	debug_config
 284 0078 00000000 		.word	.LC0
 285 007c 12000000 		.word	.LC1
 286 0080 18000000 		.word	.LC2
 287              		.cfi_endproc
 288              	.LFE287:
 290              		.section	.text.host_mouse_send,"ax",%progbits
 291              		.align	1
 292              		.global	host_mouse_send
 293              		.syntax unified
 294              		.thumb
 295              		.thumb_func
 296              		.fpu fpv4-sp-d16
 298              	host_mouse_send:
 299              	.LVL12:
 300              	.LFB288:
  81:tmk_core/common/host.c **** 
  82:tmk_core/common/host.c **** void host_mouse_send(report_mouse_t *report) {
 301              		.loc 1 82 46 is_stmt 1 view -0
 302              		.cfi_startproc
 303              		@ args = 0, pretend = 0, frame = 0
 304              		@ frame_needed = 0, uses_anonymous_args = 0
 305              		@ link register save eliminated.
  83:tmk_core/common/host.c ****     if (!driver) return;
 306              		.loc 1 83 5 view .LVU60
 307              		.loc 1 83 9 is_stmt 0 view .LVU61
 308 0000 034A     		ldr	r2, .L40
 309 0002 1268     		ldr	r2, [r2]
 310              		.loc 1 83 8 view .LVU62
 311 0004 1AB1     		cbz	r2, .L38
  84:tmk_core/common/host.c **** #ifdef MOUSE_SHARED_EP
  85:tmk_core/common/host.c ****     report->report_id = REPORT_ID_MOUSE;
 312              		.loc 1 85 5 is_stmt 1 view .LVU63
 313              		.loc 1 85 23 is_stmt 0 view .LVU64
 314 0006 0221     		movs	r1, #2
 315 0008 0170     		strb	r1, [r0]
  86:tmk_core/common/host.c **** #endif
  87:tmk_core/common/host.c ****     (*driver->send_mouse)(report);
 316              		.loc 1 87 5 is_stmt 1 view .LVU65
 317              		.loc 1 87 6 is_stmt 0 view .LVU66
 318 000a 9368     		ldr	r3, [r2, #8]
 319 000c 1847     		bx	r3	@ indirect register sibling call
 320              	.LVL13:
 321              	.L38:
  88:tmk_core/common/host.c **** }
 322              		.loc 1 88 1 view .LVU67
 323 000e 7047     		bx	lr
 324              	.L41:
 325              		.align	2
 326              	.L40:
 327 0010 00000000 		.word	.LANCHOR0
 328              		.cfi_endproc
 329              	.LFE288:
 331              		.section	.text.host_system_send,"ax",%progbits
 332              		.align	1
 333              		.global	host_system_send
 334              		.syntax unified
 335              		.thumb
 336              		.thumb_func
 337              		.fpu fpv4-sp-d16
 339              	host_system_send:
 340              	.LVL14:
 341              	.LFB289:
  89:tmk_core/common/host.c **** 
  90:tmk_core/common/host.c **** void host_system_send(uint16_t report) {
 342              		.loc 1 90 40 is_stmt 1 view -0
 343              		.cfi_startproc
 344              		@ args = 0, pretend = 0, frame = 0
 345              		@ frame_needed = 0, uses_anonymous_args = 0
 346              		@ link register save eliminated.
  91:tmk_core/common/host.c ****     if (report == last_system_report) return;
 347              		.loc 1 91 5 view .LVU69
 348              		.loc 1 91 16 is_stmt 0 view .LVU70
 349 0000 054A     		ldr	r2, .L49
 350              		.loc 1 91 8 view .LVU71
 351 0002 1188     		ldrh	r1, [r2]
 352 0004 8142     		cmp	r1, r0
 353 0006 05D0     		beq	.L42
  92:tmk_core/common/host.c ****     last_system_report = report;
 354              		.loc 1 92 5 is_stmt 1 view .LVU72
  93:tmk_core/common/host.c **** 
  94:tmk_core/common/host.c ****     if (!driver) return;
 355              		.loc 1 94 9 is_stmt 0 view .LVU73
 356 0008 044B     		ldr	r3, .L49+4
  92:tmk_core/common/host.c ****     last_system_report = report;
 357              		.loc 1 92 24 view .LVU74
 358 000a 1080     		strh	r0, [r2]	@ movhi
 359              		.loc 1 94 5 is_stmt 1 view .LVU75
 360              		.loc 1 94 9 is_stmt 0 view .LVU76
 361 000c 1B68     		ldr	r3, [r3]
 362              		.loc 1 94 8 view .LVU77
 363 000e 0BB1     		cbz	r3, .L42
  95:tmk_core/common/host.c ****     (*driver->send_system)(report);
 364              		.loc 1 95 5 is_stmt 1 view .LVU78
 365              		.loc 1 95 6 is_stmt 0 view .LVU79
 366 0010 DB68     		ldr	r3, [r3, #12]
 367 0012 1847     		bx	r3	@ indirect register sibling call
 368              	.LVL15:
 369              	.L42:
  96:tmk_core/common/host.c **** }
 370              		.loc 1 96 1 view .LVU80
 371 0014 7047     		bx	lr
 372              	.L50:
 373 0016 00BF     		.align	2
 374              	.L49:
 375 0018 00000000 		.word	.LANCHOR1
 376 001c 00000000 		.word	.LANCHOR0
 377              		.cfi_endproc
 378              	.LFE289:
 380              		.section	.text.host_consumer_send,"ax",%progbits
 381              		.align	1
 382              		.global	host_consumer_send
 383              		.syntax unified
 384              		.thumb
 385              		.thumb_func
 386              		.fpu fpv4-sp-d16
 388              	host_consumer_send:
 389              	.LVL16:
 390              	.LFB290:
  97:tmk_core/common/host.c **** 
  98:tmk_core/common/host.c **** void host_consumer_send(uint16_t report) {
 391              		.loc 1 98 42 is_stmt 1 view -0
 392              		.cfi_startproc
 393              		@ args = 0, pretend = 0, frame = 0
 394              		@ frame_needed = 0, uses_anonymous_args = 0
 395              		@ link register save eliminated.
  99:tmk_core/common/host.c ****     if (report == last_consumer_report) return;
 396              		.loc 1 99 5 view .LVU82
 397              		.loc 1 99 16 is_stmt 0 view .LVU83
 398 0000 054A     		ldr	r2, .L58
 399              		.loc 1 99 8 view .LVU84
 400 0002 1188     		ldrh	r1, [r2]
 401 0004 8142     		cmp	r1, r0
 402 0006 05D0     		beq	.L51
 100:tmk_core/common/host.c ****     last_consumer_report = report;
 403              		.loc 1 100 5 is_stmt 1 view .LVU85
 101:tmk_core/common/host.c **** 
 102:tmk_core/common/host.c ****     if (!driver) return;
 404              		.loc 1 102 9 is_stmt 0 view .LVU86
 405 0008 044B     		ldr	r3, .L58+4
 100:tmk_core/common/host.c ****     last_consumer_report = report;
 406              		.loc 1 100 26 view .LVU87
 407 000a 1080     		strh	r0, [r2]	@ movhi
 408              		.loc 1 102 5 is_stmt 1 view .LVU88
 409              		.loc 1 102 9 is_stmt 0 view .LVU89
 410 000c 1B68     		ldr	r3, [r3]
 411              		.loc 1 102 8 view .LVU90
 412 000e 0BB1     		cbz	r3, .L51
 103:tmk_core/common/host.c ****     (*driver->send_consumer)(report);
 413              		.loc 1 103 5 is_stmt 1 view .LVU91
 414              		.loc 1 103 6 is_stmt 0 view .LVU92
 415 0010 1B69     		ldr	r3, [r3, #16]
 416 0012 1847     		bx	r3	@ indirect register sibling call
 417              	.LVL17:
 418              	.L51:
 104:tmk_core/common/host.c **** }
 419              		.loc 1 104 1 view .LVU93
 420 0014 7047     		bx	lr
 421              	.L59:
 422 0016 00BF     		.align	2
 423              	.L58:
 424 0018 00000000 		.word	.LANCHOR2
 425 001c 00000000 		.word	.LANCHOR0
 426              		.cfi_endproc
 427              	.LFE290:
 429              		.section	.text.host_last_system_report,"ax",%progbits
 430              		.align	1
 431              		.global	host_last_system_report
 432              		.syntax unified
 433              		.thumb
 434              		.thumb_func
 435              		.fpu fpv4-sp-d16
 437              	host_last_system_report:
 438              	.LFB291:
 105:tmk_core/common/host.c **** 
 106:tmk_core/common/host.c **** uint16_t host_last_system_report(void) { return last_system_report; }
 439              		.loc 1 106 40 is_stmt 1 view -0
 440              		.cfi_startproc
 441              		@ args = 0, pretend = 0, frame = 0
 442              		@ frame_needed = 0, uses_anonymous_args = 0
 443              		@ link register save eliminated.
 444              		.loc 1 106 42 view .LVU95
 445              		.loc 1 106 69 is_stmt 0 view .LVU96
 446 0000 014B     		ldr	r3, .L61
 447 0002 1888     		ldrh	r0, [r3]
 448 0004 7047     		bx	lr
 449              	.L62:
 450 0006 00BF     		.align	2
 451              	.L61:
 452 0008 00000000 		.word	.LANCHOR1
 453              		.cfi_endproc
 454              	.LFE291:
 456              		.section	.text.host_last_consumer_report,"ax",%progbits
 457              		.align	1
 458              		.global	host_last_consumer_report
 459              		.syntax unified
 460              		.thumb
 461              		.thumb_func
 462              		.fpu fpv4-sp-d16
 464              	host_last_consumer_report:
 465              	.LFB292:
 107:tmk_core/common/host.c **** 
 108:tmk_core/common/host.c **** uint16_t host_last_consumer_report(void) { return last_consumer_report; }
 466              		.loc 1 108 42 is_stmt 1 view -0
 467              		.cfi_startproc
 468              		@ args = 0, pretend = 0, frame = 0
 469              		@ frame_needed = 0, uses_anonymous_args = 0
 470              		@ link register save eliminated.
 471              		.loc 1 108 44 view .LVU98
 472              		.loc 1 108 73 is_stmt 0 view .LVU99
 473 0000 014B     		ldr	r3, .L64
 474 0002 1888     		ldrh	r0, [r3]
 475 0004 7047     		bx	lr
 476              	.L65:
 477 0006 00BF     		.align	2
 478              	.L64:
 479 0008 00000000 		.word	.LANCHOR2
 480              		.cfi_endproc
 481              	.LFE292:
 483              		.section	.bss.driver,"aw",%nobits
 484              		.align	2
 485              		.set	.LANCHOR0,. + 0
 488              	driver:
 489 0000 00000000 		.space	4
 490              		.section	.bss.last_consumer_report,"aw",%nobits
 491              		.align	1
 492              		.set	.LANCHOR2,. + 0
 495              	last_consumer_report:
 496 0000 0000     		.space	2
 497              		.section	.bss.last_system_report,"aw",%nobits
 498              		.align	1
 499              		.set	.LANCHOR1,. + 0
 502              	last_system_report:
 503 0000 0000     		.space	2
 504              		.text
 505              	.Letext0:
 506              		.file 2 "c:\\qmk_msys\\mingw64\\arm-none-eabi\\include\\machine\\_default_types.h"
 507              		.file 3 "c:\\qmk_msys\\mingw64\\arm-none-eabi\\include\\sys\\_stdint.h"
 508              		.file 4 "tmk_core/common/report.h"
 509              		.file 5 "tmk_core/common/host_driver.h"
 510              		.file 6 "quantum/led.h"
 511              		.file 7 "quantum/logging/debug.h"
 512              		.file 8 "tmk_core/common/host.h"
 513              		.file 9 "quantum/keycode_config.h"
 514              		.file 10 "lib/printf/printf.h"